EXPORTS
?$TSS0@?1??getSingletonInstance@?$KernelSingletonObject@VConfigManager@system@m2@@@hx@@SAPEAVConfigManager@system@m2@@XZ@4HA
?$TSS0@?1??getSingletonInstance@?$KernelSingletonObject@VControllerManager@input@m2@@@hx@@SAPEAVControllerManager@input@m2@@XZ@4HA
?$TSS0@?1??getSingletonInstance@?$KernelSingletonObject@VKeyBinding@input@m2@@@hx@@SAPEAVKeyBinding@input@m2@@XZ@4HA
?$TSS0@?1??getSingletonInstance@?$KernelSingletonObject@VRender@system@m2@@@hx@@SAPEAVRender@system@m2@@XZ@4HA
?$TSS0@?1??getSingletonInstance@?$KernelSingletonObject@VTextureLoadASyncManager@hx@@@hx@@SAPEAVTextureLoadASyncManager@3@XZ@4HA
?$TSS0@?1??getSingletonInstance@?$KernelSingletonObject@VcSystemEvent@wk@@@hx@@SAPEAVcSystemEvent@wk@@XZ@4HA
?$TSS0@?1??getSingletonInstance@?$SingletonObject@VOSThreadCloseManager@wk@@@hx@@SAPEAVOSThreadCloseManager@wk@@XZ@4HA
??0?$ControlMgrAllocator@UDIDEVICEINSTANCEW@@@input@m2@@QEAA@AEBV012@@Z
??0?$ControlMgrAllocator@UDIDEVICEINSTANCEW@@@input@m2@@QEAA@XZ
??0?$ControlMgrAllocator@UDIDEVICEOBJECTINSTANCEW@@@input@m2@@QEAA@XZ
??0?$ControlMgrAllocator@UInputDeviceInfo@input@m2@@@input@m2@@QEAA@XZ
??0?$KernelSingletonObject@VConfigManager@system@m2@@@hx@@QEAA@AEBV01@@Z
??0?$KernelSingletonObject@VConfigManager@system@m2@@@hx@@QEAA@XZ
??0?$KernelSingletonObject@VControllerManager@input@m2@@@hx@@QEAA@AEBV01@@Z
??0?$KernelSingletonObject@VControllerManager@input@m2@@@hx@@QEAA@XZ
??0?$KernelSingletonObject@VKeyBinding@input@m2@@@hx@@QEAA@AEBV01@@Z
??0?$KernelSingletonObject@VKeyBinding@input@m2@@@hx@@QEAA@XZ
??0?$KernelSingletonObject@VRender@system@m2@@@hx@@QEAA@AEBV01@@Z
??0?$KernelSingletonObject@VRender@system@m2@@@hx@@QEAA@XZ
??0?$KernelSingletonObject@VTextureLoadASyncManager@hx@@@hx@@QEAA@AEBV01@@Z
??0?$KernelSingletonObject@VTextureLoadASyncManager@hx@@@hx@@QEAA@XZ
??0?$KernelSingletonObject@VcSystemEvent@wk@@@hx@@QEAA@AEBV01@@Z
??0?$KernelSingletonObject@VcSystemEvent@wk@@@hx@@QEAA@XZ
??0?$LE@G@endian@hx@@QEAA@XZ
??0?$LE@H@endian@hx@@QEAA@XZ
??0?$LE@I@endian@hx@@QEAA@XZ
??0?$LE@W4RESOURCE_TYPE@HeaderDXT10@FileDDS@hx@@@endian@hx@@QEAA@XZ
??0?$LargeBitElement@W4JOY_ACTIDX@@$00@m2@@QEAA@AEBV01@@Z
??0?$LargeBitElement@W4JOY_ACTIDX@@$00@m2@@QEAA@UAnd@LargeBitOperator@1@AEBV01@1@Z
??0?$LargeBitElement@W4JOY_ACTIDX@@$00@m2@@QEAA@UEmpty@LargeBitOperator@1@@Z
??0?$LargeBitElement@W4JOY_ACTIDX@@$00@m2@@QEAA@UInvert@LargeBitOperator@1@AEBV01@@Z
??0?$LargeBitElement@W4JOY_ACTIDX@@$00@m2@@QEAA@UOr@LargeBitOperator@1@AEBV01@1@Z
??0?$LargeBitElement@W4JOY_ACTIDX@@$00@m2@@QEAA@UXor@LargeBitOperator@1@AEBV01@1@Z
??0?$LargeBitElement@W4JOY_ACTIDX@@$00@m2@@QEAA@W4JOY_ACTIDX@@@Z
??0?$LargeBitElement@W4JOY_ACTIDX@@$00@m2@@QEAA@XZ
??0?$LargeBitElement@W4JOY_ACTIDX@@$01@m2@@QEAA@AEBV01@@Z
??0?$LargeBitElement@W4JOY_ACTIDX@@$01@m2@@QEAA@UAnd@LargeBitOperator@1@AEBV01@1@Z
??0?$LargeBitElement@W4JOY_ACTIDX@@$01@m2@@QEAA@UEmpty@LargeBitOperator@1@@Z
??0?$LargeBitElement@W4JOY_ACTIDX@@$01@m2@@QEAA@UInvert@LargeBitOperator@1@AEBV01@@Z
??0?$LargeBitElement@W4JOY_ACTIDX@@$01@m2@@QEAA@UOr@LargeBitOperator@1@AEBV01@1@Z
??0?$LargeBitElement@W4JOY_ACTIDX@@$01@m2@@QEAA@UXor@LargeBitOperator@1@AEBV01@1@Z
??0?$LargeBitElement@W4JOY_ACTIDX@@$01@m2@@QEAA@W4JOY_ACTIDX@@@Z
??0?$LargeBitElement@W4JOY_ACTIDX@@$01@m2@@QEAA@XZ
??0?$LargeBitElement@W4JOY_ACTIDX@@$0A@@m2@@QEAA@AEBV01@@Z
??0?$LargeBitElement@W4JOY_ACTIDX@@$0A@@m2@@QEAA@UAnd@LargeBitOperator@1@AEBV01@1@Z
??0?$LargeBitElement@W4JOY_ACTIDX@@$0A@@m2@@QEAA@UEmpty@LargeBitOperator@1@@Z
??0?$LargeBitElement@W4JOY_ACTIDX@@$0A@@m2@@QEAA@UInvert@LargeBitOperator@1@AEBV01@@Z
??0?$LargeBitElement@W4JOY_ACTIDX@@$0A@@m2@@QEAA@UOr@LargeBitOperator@1@AEBV01@1@Z
??0?$LargeBitElement@W4JOY_ACTIDX@@$0A@@m2@@QEAA@UXor@LargeBitOperator@1@AEBV01@1@Z
??0?$LargeBitElement@W4JOY_ACTIDX@@$0A@@m2@@QEAA@W4JOY_ACTIDX@@@Z
??0?$LargeBitElement@W4JOY_ACTIDX@@$0A@@m2@@QEAA@XZ
??0?$LargeBitValue@W4JOY_ACTIDX@@$0HJ@@m2@@QEAA@AEBV01@@Z
??0?$LargeBitValue@W4JOY_ACTIDX@@$0HJ@@m2@@QEAA@UAnd@LargeBitOperator@1@AEBV01@1@Z
??0?$LargeBitValue@W4JOY_ACTIDX@@$0HJ@@m2@@QEAA@UEmpty@LargeBitOperator@1@@Z
??0?$LargeBitValue@W4JOY_ACTIDX@@$0HJ@@m2@@QEAA@UInvert@LargeBitOperator@1@AEBV01@@Z
??0?$LargeBitValue@W4JOY_ACTIDX@@$0HJ@@m2@@QEAA@UOr@LargeBitOperator@1@AEBV01@1@Z
??0?$LargeBitValue@W4JOY_ACTIDX@@$0HJ@@m2@@QEAA@UXor@LargeBitOperator@1@AEBV01@1@Z
??0?$LargeBitValue@W4JOY_ACTIDX@@$0HJ@@m2@@QEAA@W4JOY_ACTIDX@@@Z
??0?$SingletonObject@VOSThreadCloseManager@wk@@@hx@@QEAA@AEBV01@@Z
??0?$SingletonObject@VOSThreadCloseManager@wk@@@hx@@QEAA@XZ
??0BasicLockObject@sync@m2@@QEAA@AEBV012@@Z
??0BasicLockObject@sync@m2@@QEAA@XZ
??0Buffer@render@m2@@QEAA@AEBV012@@Z
??0Buffer@render@m2@@QEAA@XZ
??0ConfigManager@system@m2@@QEAA@AEBV012@@Z
??0ConfigManager@system@m2@@QEAA@XZ
??0Context@render@m2@@QEAA@AEBV012@@Z
??0Context@render@m2@@QEAA@PEBVDevice@12@PEAUID3D11DeviceContext@@@Z
??0Context@render@m2@@QEAA@PEBVDevice@12@PEAV012@@Z
??0ControllerManager@input@m2@@QEAA@AEBV012@@Z
??0ControllerManager@input@m2@@QEAA@XZ
??0Core@hx@@QEAA@AEBV01@@Z
??0Core@hx@@QEAA@XZ
??0CriticalSection@sync@hx@@QEAA@AEBV012@@Z
??0CriticalSection@sync@hx@@QEAA@XZ
??0Degree@math@hx@@QEAA@AEBV012@@Z
??0Degree@math@hx@@QEAA@AEBVRadian@12@@Z
??0Degree@math@hx@@QEAA@M@Z
??0Degree@math@hx@@QEAA@XZ
??0Desc@Sampler@render@m2@@QEAA@AEBU0123@@Z
??0Desc@Sampler@render@m2@@QEAA@XZ
??0Device@render@m2@@QEAA@AEBV012@@Z
??0Device@render@m2@@QEAA@XZ
??0EventLockObject@sync@m2@@QEAA@AEBV012@@Z
??0EventLockObject@sync@m2@@QEAA@_N@Z
??0File@hx@@QEAA@AEBV01@@Z
??0File@hx@@QEAA@PEBDI@Z
??0FileBMP@hx@@QEAA@PEAX@Z
??0FileDDS@hx@@QEAA@PEAX@Z
??0FileInfo@File@hx@@QEAA@AEBV012@@Z
??0FileInfo@File@hx@@QEAA@XZ
??0GXPacket@hx@@QEAA@XZ
??0Header@FileDDS@hx@@QEAA@XZ
??0HeaderDXT10@FileDDS@hx@@QEAA@XZ
??0IResource@render@m2@@QEAA@AEBV012@@Z
??0IResource@render@m2@@QEAA@XZ
??0InputDevice@input@m2@@QEAA@AEBV012@@Z
??0InputDevice@input@m2@@QEAA@H@Z
??0JsonReader@json@m2@@QEAA@PEBD_K@Z
??0KeyBinding@input@m2@@QEAA@AEBV012@@Z
??0KeyBinding@input@m2@@QEAA@XZ
??0Matrix44@math@hx@@QEAA@AEBUMatrix@2@@Z
??0Matrix44@math@hx@@QEAA@MMMMMMMMMMMMMMMM@Z
??0Matrix@hx@@QEAA@MMMMMMMMMMMMMMMM@Z
??0OSThreadCloseManager@wk@@QEAA@AEBV01@@Z
??0OSThreadCloseManager@wk@@QEAA@XZ
??0OSTick@wk@@QEAA@T_LARGE_INTEGER@@@Z
??0OSTick@wk@@QEAA@_K@Z
??0PixelFormat@FileDDS@hx@@QEAA@XZ
??0Radian@math@hx@@QEAA@AEBV012@@Z
??0Radian@math@hx@@QEAA@AEBVDegree@12@@Z
??0Radian@math@hx@@QEAA@M@Z
??0Radian@math@hx@@QEAA@XZ
??0RefCounter@hx@@QEAA@AEBV01@@Z
??0RefCounter@hx@@QEAA@XZ
??0Region@hx@@QEAA@XZ
??0Render@system@m2@@QEAA@AEBV012@@Z
??0Render@system@m2@@QEAA@XZ
??0RenderBase@render@m2@@QEAA@AEBV012@@Z
??0RenderBase@render@m2@@QEAA@XZ
??0Sampler@render@m2@@QEAA@AEBV012@@Z
??0Sampler@render@m2@@QEAA@XZ
??0Scaler@render@m2@@QEAA@AEBV012@@Z
??0Scaler@render@m2@@QEAA@XZ
??0Size@hx@@QEAA@HH@Z
??0SpinLockObject@sync@m2@@QEAA@AEBV012@@Z
??0SpinLockObject@sync@m2@@QEAA@XZ
??0StageGS@Context@render@m2@@QEAA@AEAV123@@Z
??0StageIA@Context@render@m2@@QEAA@AEAV123@@Z
??0StageOM@Context@render@m2@@QEAA@AEAV123@@Z
??0StagePS@Context@render@m2@@QEAA@AEAV123@@Z
??0StagePS@Context@render@m2@@QEAA@AEBV0123@@Z
??0StageRS@Context@render@m2@@QEAA@AEAV123@@Z
??0StageSO@Context@render@m2@@QEAA@AEAV123@@Z
??0StageVS@Context@render@m2@@QEAA@AEAV123@@Z
??0Stream@hx@@QEAA@$$QEAV01@@Z
??0Stream@hx@@QEAA@AEBV01@@Z
??0Stream@hx@@QEAA@XZ
??0StreamBuffer@hx@@QEAA@AEBV01@@Z
??0StreamBuffer@hx@@QEAA@_K@Z
??0StreamFile@hx@@QEAA@AEBV01@@Z
??0StreamFile@hx@@QEAA@XZ
??0String@hx@@QEAA@AEBV01@@Z
??0String@hx@@QEAA@PEBD@Z
??0String@hx@@QEAA@PEB_WHI@Z
??0String@hx@@QEAA@XZ
??0SwapChain@render@m2@@QEAA@AEBV012@@Z
??0SwapChain@render@m2@@QEAA@XZ
??0SyncObject@sync@m2@@QEAA@AEBV012@@Z
??0SyncObject@sync@m2@@QEAA@XZ
??0Texture2D@render@m2@@QEAA@AEBV012@@Z
??0Texture2D@render@m2@@QEAA@XZ
??0Texture@hx@@QEAA@XZ
??0Texture@render@m2@@QEAA@$$QEAV012@@Z
??0Texture@render@m2@@QEAA@AEBV012@@Z
??0Texture@render@m2@@QEAA@XZ
??0TextureLoadASyncManager@hx@@QEAA@AEBV01@@Z
??0TextureLoadASyncManager@hx@@QEAA@XZ
??0Vector3@hx@@QEAA@MMM@Z
??0Vector4@hx@@QEAA@MMMM@Z
??0b32@hx@@QEAA@AEBUb32_@1@@Z
??0b32@hx@@QEAA@H@Z
??0b32@hx@@QEAA@I@Z
??0b32@hx@@QEAA@_N@Z
??0cDefiniteHeap@mem@wk@@QEAA@AEBV012@@Z
??0cDefiniteHeap@mem@wk@@QEAA@XZ
??0cHeap@mem@wk@@QEAA@AEBV012@@Z
??0cHeap@mem@wk@@QEAA@XZ
??0cHeapCommon@mem@wk@@QEAA@W4eType@012@@Z
??0cHeapExpandable@mem@wk@@QEAA@AEBV012@@Z
??0cHeapExpandable@mem@wk@@QEAA@I@Z
??0cHeapExtended@mem@wk@@QEAA@AEBV012@@Z
??0cHeapExtended@mem@wk@@QEAA@I@Z
??0cSystemEvent@wk@@QEAA@AEBV01@@Z
??0cSystemEvent@wk@@QEAA@XZ
??0cVec@math@wk@@QEAA@AEBT__m128@@@Z
??0cVec@math@wk@@QEAA@AEBUsVec@12@@Z
??0cVec@math@wk@@QEAA@AEBV012@@Z
??0cVec@math@wk@@QEAA@MMMM@Z
??0cVec@math@wk@@QEAA@QEBM@Z
??0cVec@math@wk@@QEAA@XZ
??1?$KernelSingletonObject@VConfigManager@system@m2@@@hx@@UEAA@XZ
??1?$KernelSingletonObject@VControllerManager@input@m2@@@hx@@UEAA@XZ
??1?$KernelSingletonObject@VKeyBinding@input@m2@@@hx@@UEAA@XZ
??1?$KernelSingletonObject@VRender@system@m2@@@hx@@UEAA@XZ
??1?$KernelSingletonObject@VTextureLoadASyncManager@hx@@@hx@@UEAA@XZ
??1?$KernelSingletonObject@VcSystemEvent@wk@@@hx@@UEAA@XZ
??1?$LargeBitElement@W4JOY_ACTIDX@@$00@m2@@QEAA@XZ
??1?$LargeBitElement@W4JOY_ACTIDX@@$01@m2@@QEAA@XZ
??1?$LargeBitElement@W4JOY_ACTIDX@@$0A@@m2@@QEAA@XZ
??1?$SingletonObject@VOSThreadCloseManager@wk@@@hx@@UEAA@XZ
??1BasicLockObject@sync@m2@@UEAA@XZ
??1Buffer@render@m2@@UEAA@XZ
??1ConfigManager@system@m2@@UEAA@XZ
??1Context@render@m2@@UEAA@XZ
??1ControllerManager@input@m2@@UEAA@XZ
??1Core@hx@@UEAA@XZ
??1CriticalSection@sync@hx@@UEAA@XZ
??1Desc@Sampler@render@m2@@UEAA@XZ
??1Device@render@m2@@UEAA@XZ
??1EventLockObject@sync@m2@@UEAA@XZ
??1File@hx@@UEAA@XZ
??1FileDDS@hx@@QEAA@XZ
??1FileInfo@File@hx@@UEAA@XZ
??1GXPacket@hx@@QEAA@XZ
??1IResource@render@m2@@UEAA@XZ
??1InputDevice@input@m2@@UEAA@XZ
??1KeyBinding@input@m2@@UEAA@XZ
??1OSThreadCloseManager@wk@@UEAA@XZ
??1RefCounter@hx@@UEAA@XZ
??1Region@hx@@QEAA@XZ
??1Render@system@m2@@UEAA@XZ
??1RenderBase@render@m2@@UEAA@XZ
??1Sampler@render@m2@@UEAA@XZ
??1Scaler@render@m2@@UEAA@XZ
??1SpinLockObject@sync@m2@@UEAA@XZ
??1StageIA@Context@render@m2@@QEAA@XZ
??1StagePS@Context@render@m2@@QEAA@XZ
??1StageRS@Context@render@m2@@QEAA@XZ
??1Stream@hx@@UEAA@XZ
??1StreamBuffer@hx@@UEAA@XZ
??1StreamFile@hx@@UEAA@XZ
??1String@hx@@UEAA@XZ
??1SwapChain@render@m2@@UEAA@XZ
??1SyncObject@sync@m2@@UEAA@XZ
??1Texture2D@render@m2@@UEAA@XZ
??1Texture@hx@@QEAA@XZ
??1Texture@render@m2@@UEAA@XZ
??1TextureLoadASyncManager@hx@@UEAA@XZ
??1b32@hx@@QEAA@XZ
??1cDefiniteHeap@mem@wk@@UEAA@XZ
??1cHeap@mem@wk@@UEAA@XZ
??1cHeapExpandable@mem@wk@@UEAA@XZ
??1cHeapExtended@mem@wk@@UEAA@XZ
??1cSystemEvent@wk@@UEAA@XZ
??4?$ControlMgrAllocator@UDIDEVICEINSTANCEW@@@input@m2@@QEAAAEAV012@AEBV012@@Z
??4?$ControlMgrAllocator@UDIDEVICEOBJECTINSTANCEW@@@input@m2@@QEAAAEAV012@AEBV012@@Z
??4?$ControlMgrAllocator@UInputDeviceInfo@input@m2@@@input@m2@@QEAAAEAV012@AEBV012@@Z
??4?$KernelSingletonObject@VConfigManager@system@m2@@@hx@@QEAAAEAV01@AEBV01@@Z
??4?$KernelSingletonObject@VControllerManager@input@m2@@@hx@@QEAAAEAV01@AEBV01@@Z
??4?$KernelSingletonObject@VKeyBinding@input@m2@@@hx@@QEAAAEAV01@AEBV01@@Z
??4?$KernelSingletonObject@VRender@system@m2@@@hx@@QEAAAEAV01@AEBV01@@Z
??4?$KernelSingletonObject@VTextureLoadASyncManager@hx@@@hx@@QEAAAEAV01@AEBV01@@Z
??4?$KernelSingletonObject@VcSystemEvent@wk@@@hx@@QEAAAEAV01@AEBV01@@Z
??4?$LE@G@endian@hx@@QEAAAEAU012@$$QEAU012@@Z
??4?$LE@G@endian@hx@@QEAAAEAU012@AEBU012@@Z
??4?$LE@H@endian@hx@@QEAAAEAU012@$$QEAU012@@Z
??4?$LE@H@endian@hx@@QEAAAEAU012@AEBU012@@Z
??4?$LE@I@endian@hx@@QEAAAEAU012@$$QEAU012@@Z
??4?$LE@I@endian@hx@@QEAAAEAU012@AEBU012@@Z
??4?$LE@W4RESOURCE_TYPE@HeaderDXT10@FileDDS@hx@@@endian@hx@@QEAAAEAU012@$$QEAU012@@Z
??4?$LE@W4RESOURCE_TYPE@HeaderDXT10@FileDDS@hx@@@endian@hx@@QEAAAEAU012@AEBU012@@Z
??4?$LargeBitElement@W4JOY_ACTIDX@@$00@m2@@QEAAAEBV01@AEBV01@@Z
??4?$LargeBitElement@W4JOY_ACTIDX@@$01@m2@@QEAAAEBV01@AEBV01@@Z
??4?$LargeBitElement@W4JOY_ACTIDX@@$0A@@m2@@QEAAAEBV01@AEBV01@@Z
??4?$LargeBitValue@W4JOY_ACTIDX@@$0HJ@@m2@@QEAAAEBV01@AEBV01@@Z
??4?$SingletonObject@VOSThreadCloseManager@wk@@@hx@@QEAAAEAV01@AEBV01@@Z
??4Buffer@render@m2@@QEAAAEAV012@AEBV012@@Z
??4ConfigManager@system@m2@@QEAAAEAV012@AEBV012@@Z
??4ControllerManager@input@m2@@QEAAAEAV012@AEBV012@@Z
??4Core@hx@@QEAAAEAV01@AEBV01@@Z
??4CriticalSection@sync@hx@@QEAAAEAV012@AEBV012@@Z
??4CursorData@input@m2@@QEAAAEAU012@$$QEAU012@@Z
??4CursorData@input@m2@@QEAAAEAU012@AEBU012@@Z
??4Degree@math@hx@@QEAAAEAV012@AEBV012@@Z
??4Degree@math@hx@@QEAAAEAV012@AEBVRadian@12@@Z
??4Desc@Sampler@render@m2@@QEAAAEAU0123@AEBU0123@@Z
??4Device@render@m2@@QEAAAEAV012@AEBV012@@Z
??4File@hx@@QEAAAEAV01@AEBV01@@Z
??4FileBMP@hx@@QEAAAEAV01@$$QEAV01@@Z
??4FileBMP@hx@@QEAAAEAV01@AEBV01@@Z
??4FileDDS@hx@@QEAAAEAV01@$$QEAV01@@Z
??4FileDDS@hx@@QEAAAEAV01@AEBV01@@Z
??4FileInfo@File@hx@@QEAAAEAV012@AEBV012@@Z
??4GXPacket@hx@@QEAAAEAV01@AEBV01@@Z
??4Header@FileDDS@hx@@QEAAAEAU012@$$QEAU012@@Z
??4Header@FileDDS@hx@@QEAAAEAU012@AEBU012@@Z
??4HeaderDXT10@FileDDS@hx@@QEAAAEAU012@$$QEAU012@@Z
??4HeaderDXT10@FileDDS@hx@@QEAAAEAU012@AEBU012@@Z
??4IResource@render@m2@@QEAAAEAV012@AEBV012@@Z
??4InputDevice@input@m2@@QEAAAEAV012@AEBV012@@Z
??4InputDeviceInfo@input@m2@@QEAAAEAU012@$$QEAU012@@Z
??4InputDeviceInfo@input@m2@@QEAAAEAU012@AEBU012@@Z
??4JsonReader@json@m2@@QEAAAEAV012@$$QEAV012@@Z
??4JsonReader@json@m2@@QEAAAEAV012@AEBV012@@Z
??4KeyBinding@input@m2@@QEAAAEAV012@AEBV012@@Z
??4Matrix44@math@hx@@QEAAAEAU012@$$QEAU012@@Z
??4Matrix44@math@hx@@QEAAAEAU012@AEBU012@@Z
??4Matrix@hx@@QEAAAEAU01@$$QEAU01@@Z
??4Matrix@hx@@QEAAAEAU01@AEBU01@@Z
??4OSThread@wk@@QEAAAEAU01@$$QEAU01@@Z
??4OSThread@wk@@QEAAAEAU01@AEBU01@@Z
??4OSThreadCloseManager@wk@@QEAAAEAV01@AEBV01@@Z
??4OSThreadLink@wk@@QEAAAEAU01@$$QEAU01@@Z
??4OSThreadLink@wk@@QEAAAEAU01@AEBU01@@Z
??4OSTick@wk@@QEAAAEAU01@$$QEAU01@@Z
??4OSTick@wk@@QEAAAEAU01@AEBT_LARGE_INTEGER@@@Z
??4OSTick@wk@@QEAAAEAU01@AEBU01@@Z
??4OSTick@wk@@QEAAAEAU01@AEB_K@Z
??4PixelFormat@FileDDS@hx@@QEAAAEAU012@$$QEAU012@@Z
??4PixelFormat@FileDDS@hx@@QEAAAEAU012@AEBU012@@Z
??4Radian@math@hx@@QEAAAEAV012@AEBV012@@Z
??4Radian@math@hx@@QEAAAEAV012@AEBVDegree@12@@Z
??4RefCounter@hx@@QEAAAEAV01@AEBV01@@Z
??4Region@hx@@QEAAAEAV01@AEBV01@@Z
??4Render@system@m2@@QEAAAEAV012@AEBV012@@Z
??4RenderBase@render@m2@@QEAAAEAV012@AEBV012@@Z
??4Sampler@render@m2@@QEAAAEAV012@AEBV012@@Z
??4Scaler@render@m2@@QEAAAEAV012@AEBV012@@Z
??4Size@hx@@QEAAAEAU01@$$QEAU01@@Z
??4Size@hx@@QEAAAEAU01@AEBU01@@Z
??4SpinLockObject@sync@m2@@QEAAAEAV012@AEBV012@@Z
??4Stream@hx@@QEAAAEAV01@$$QEAV01@@Z
??4Stream@hx@@QEAAAEAV01@AEBV01@@Z
??4StreamBuffer@hx@@QEAAAEAV01@AEBV01@@Z
??4StreamFile@hx@@QEAAAEAV01@AEBV01@@Z
??4String@hx@@QEAAAEBV01@AEBV01@@Z
??4String@hx@@QEAAAEBV01@PEBD@Z
??4SwapChain@render@m2@@QEAAAEAV012@AEBV012@@Z
??4SyncObject@sync@m2@@QEAAAEAV012@AEBV012@@Z
??4Texture2D@render@m2@@QEAAAEAV012@AEBV012@@Z
??4Texture@hx@@QEAAAEAV01@AEBV01@@Z
??4Texture@render@m2@@QEAAAEAV012@$$QEAV012@@Z
??4Texture@render@m2@@QEAAAEAV012@AEBV012@@Z
??4TextureLoadASyncManager@hx@@QEAAAEAV01@AEBV01@@Z
??4Vector3@hx@@QEAAAEAU01@$$QEAU01@@Z
??4Vector3@hx@@QEAAAEAU01@AEBU01@@Z
??4Vector4@hx@@QEAAAEAU01@$$QEAU01@@Z
??4Vector4@hx@@QEAAAEAU01@AEBU01@@Z
??4b32@hx@@QEAAAEAU01@AEBU01@@Z
??4cDefiniteHeap@mem@wk@@QEAAAEAV012@AEBV012@@Z
??4cHeap@mem@wk@@QEAAAEAV012@AEBV012@@Z
??4cHeapCommon@mem@wk@@QEAAAEAV012@$$QEAV012@@Z
??4cHeapCommon@mem@wk@@QEAAAEAV012@AEBV012@@Z
??4cMatrix@math@wk@@QEAAAEAV012@$$QEAV012@@Z
??4cMatrix@math@wk@@QEAAAEAV012@AEBV012@@Z
??4cSystemEvent@wk@@QEAAAEAV01@AEBV01@@Z
??4cVec@math@wk@@QEAAAEAV012@AEBUsVec@12@@Z
??4cVec@math@wk@@QEAAAEAV012@AEBV012@@Z
??7?$LargeBitValue@W4JOY_ACTIDX@@$0HJ@@m2@@QEBA_NXZ
??8?$LargeBitElement@W4JOY_ACTIDX@@$00@m2@@QEBA_NAEBV01@@Z
??8?$LargeBitElement@W4JOY_ACTIDX@@$01@m2@@QEBA_NAEBV01@@Z
??8?$LargeBitElement@W4JOY_ACTIDX@@$0A@@m2@@QEBA_NAEBV01@@Z
??8?$LargeBitValue@W4JOY_ACTIDX@@$0HJ@@m2@@QEBA_NAEBV01@@Z
??8Size@hx@@QEAA?AUb32@1@AEBU01@@Z
??8String@hx@@QEAA?AUb32@1@AEBV01@@Z
??8String@hx@@QEAA?AUb32@1@PEBD@Z
??8cVec@math@wk@@QEBA_NAEBV012@@Z
??9?$LargeBitElement@W4JOY_ACTIDX@@$00@m2@@QEBA_NAEBV01@@Z
??9?$LargeBitElement@W4JOY_ACTIDX@@$01@m2@@QEBA_NAEBV01@@Z
??9?$LargeBitElement@W4JOY_ACTIDX@@$0A@@m2@@QEBA_NAEBV01@@Z
??9?$LargeBitValue@W4JOY_ACTIDX@@$0HJ@@m2@@QEBA_NAEBV01@@Z
??9String@hx@@QEAA?AUb32@1@AEBV01@@Z
??9String@hx@@QEAA?AUb32@1@PEBD@Z
??9cVec@math@wk@@QEBA_NAEBV012@@Z
??A?$LargeBitElement@W4JOY_ACTIDX@@$00@m2@@QEAAAEA_K_K@Z
??A?$LargeBitElement@W4JOY_ACTIDX@@$00@m2@@QEBAAEB_K_K@Z
??A?$LargeBitElement@W4JOY_ACTIDX@@$01@m2@@QEAAAEA_K_K@Z
??A?$LargeBitElement@W4JOY_ACTIDX@@$01@m2@@QEBAAEB_K_K@Z
??A?$LargeBitElement@W4JOY_ACTIDX@@$0A@@m2@@QEAAAEA_K_K@Z
??A?$LargeBitElement@W4JOY_ACTIDX@@$0A@@m2@@QEBAAEB_K_K@Z
??A?$LargeBitValue@W4JOY_ACTIDX@@$0HJ@@m2@@QEAAAEA_K_K@Z
??A?$LargeBitValue@W4JOY_ACTIDX@@$0HJ@@m2@@QEBAAEB_K_K@Z
??B?$LE@I@endian@hx@@QEBAIXZ
??B?$LargeBitValue@W4JOY_ACTIDX@@$0HJ@@m2@@QEBA_NXZ
??BDegree@math@hx@@QEBAMXZ
??BOSTick@wk@@QEBA?AT_LARGE_INTEGER@@XZ
??BOSTick@wk@@QEBA_KXZ
??BRadian@math@hx@@QEBAMXZ
??BString@hx@@QEAAPEADXZ
??BString@hx@@QEBAPEBDXZ
??Bb32@hx@@QEBAIXZ
??BcVec@math@wk@@QEAAAEAY03MXZ
??DMatrix@hx@@QEBA?AU01@AEBU01@@Z
??DcVec@math@wk@@QEBA?AV012@AEBVcMatrix@12@@Z
??DcVec@math@wk@@QEBA?AV012@M@Z
??GCursorData@input@m2@@QEBA?AU012@AEBU012@@Z
??GOSTick@wk@@QEBA?AU01@AEBH@Z
??GOSTick@wk@@QEBA?AU01@AEBI@Z
??GOSTick@wk@@QEBA?AU01@AEB_J@Z
??GOSTick@wk@@QEBA?AU01@AEB_K@Z
??GVector3@hx@@QEBA?AU01@AEBU01@@Z
??GcVec@math@wk@@QEBA?AV012@AEBV012@@Z
??HString@hx@@QEAA?AV01@D@Z
??HString@hx@@QEAA?AV01@PEBD@Z
??HVector3@hx@@QEBA?AU01@AEBU01@@Z
??HcVec@math@wk@@QEBA?AV012@AEBV012@@Z
??KVector3@hx@@QEBA?AU01@M@Z
??KcVec@math@wk@@QEBA?AV012@M@Z
??MString@hx@@QEAA?AUb32@1@AEBV01@@Z
??MString@hx@@QEAA?AUb32@1@PEBD@Z
??NString@hx@@QEAA?AUb32@1@AEBV01@@Z
??NString@hx@@QEAA?AUb32@1@PEBD@Z
??OString@hx@@QEAA?AUb32@1@AEBV01@@Z
??OString@hx@@QEAA?AUb32@1@PEBD@Z
??PString@hx@@QEAA?AUb32@1@AEBV01@@Z
??PString@hx@@QEAA?AUb32@1@PEBD@Z
??XMatrix@hx@@QEAAAEBU01@AEBU01@@Z
??XcVec@math@wk@@QEAAAEAV012@AEBV012@@Z
??XcVec@math@wk@@QEAAAEAV012@AEBVcMatrix@12@@Z
??XcVec@math@wk@@QEAAAEAV012@M@Z
??YString@hx@@QEAAXD@Z
??YString@hx@@QEAAXPEBD@Z
??YcVec@math@wk@@QEAAAEAV012@AEBV012@@Z
??YcVec@math@wk@@QEAAAEAV012@M@Z
??ZcVec@math@wk@@QEAAAEAV012@AEBV012@@Z
??ZcVec@math@wk@@QEAAAEAV012@M@Z
??_0cVec@math@wk@@QEAAAEAV012@M@Z
??_4?$LargeBitElement@W4JOY_ACTIDX@@$00@m2@@QEAAAEBV01@AEBV01@@Z
??_4?$LargeBitElement@W4JOY_ACTIDX@@$01@m2@@QEAAAEBV01@AEBV01@@Z
??_4?$LargeBitElement@W4JOY_ACTIDX@@$0A@@m2@@QEAAAEBV01@AEBV01@@Z
??_4?$LargeBitValue@W4JOY_ACTIDX@@$0HJ@@m2@@QEAAAEBV01@AEBV01@@Z
??_5?$LargeBitElement@W4JOY_ACTIDX@@$00@m2@@QEAAAEBV01@AEBV01@@Z
??_5?$LargeBitElement@W4JOY_ACTIDX@@$01@m2@@QEAAAEBV01@AEBV01@@Z
??_5?$LargeBitElement@W4JOY_ACTIDX@@$0A@@m2@@QEAAAEBV01@AEBV01@@Z
??_5?$LargeBitValue@W4JOY_ACTIDX@@$0HJ@@m2@@QEAAAEBV01@AEBV01@@Z
??_6?$LargeBitElement@W4JOY_ACTIDX@@$00@m2@@QEAAAEBV01@AEBV01@@Z
??_6?$LargeBitElement@W4JOY_ACTIDX@@$01@m2@@QEAAAEBV01@AEBV01@@Z
??_6?$LargeBitElement@W4JOY_ACTIDX@@$0A@@m2@@QEAAAEBV01@AEBV01@@Z
??_6?$LargeBitValue@W4JOY_ACTIDX@@$0HJ@@m2@@QEAAAEBV01@AEBV01@@Z
??_7?$KernelSingletonObject@VConfigManager@system@m2@@@hx@@6B@
??_7?$KernelSingletonObject@VControllerManager@input@m2@@@hx@@6B@
??_7?$KernelSingletonObject@VKeyBinding@input@m2@@@hx@@6B@
??_7?$KernelSingletonObject@VRender@system@m2@@@hx@@6B@
??_7?$KernelSingletonObject@VTextureLoadASyncManager@hx@@@hx@@6B@
??_7?$KernelSingletonObject@VcSystemEvent@wk@@@hx@@6B@
??_7?$SingletonObject@VOSThreadCloseManager@wk@@@hx@@6B@
??_7BasicLockObject@sync@m2@@6B@
??_7Buffer@render@m2@@6B@
??_7ConfigManager@system@m2@@6B@
??_7Context@render@m2@@6B@
??_7ControllerManager@input@m2@@6B@
??_7Core@hx@@6B@
??_7CriticalSection@sync@hx@@6B@
??_7Desc@Sampler@render@m2@@6B@
??_7Device@render@m2@@6B@
??_7EventLockObject@sync@m2@@6B@
??_7File@hx@@6B@
??_7FileInfo@File@hx@@6B@
??_7IResource@render@m2@@6B@
??_7InputDevice@input@m2@@6B@
??_7KeyBinding@input@m2@@6B@
??_7OSThreadCloseManager@wk@@6B@
??_7RefCounter@hx@@6B@
??_7Render@system@m2@@6B@
??_7RenderBase@render@m2@@6B@
??_7Sampler@render@m2@@6B@
??_7Scaler@render@m2@@6B@
??_7SpinLockObject@sync@m2@@6B@
??_7Stream@hx@@6B@
??_7StreamBuffer@hx@@6B@
??_7StreamFile@hx@@6B@
??_7String@hx@@6B@
??_7SwapChain@render@m2@@6B@
??_7SyncObject@sync@m2@@6B@
??_7Texture2D@render@m2@@6B@
??_7Texture@render@m2@@6B@
??_7TextureLoadASyncManager@hx@@6B@
??_7cDefiniteHeap@mem@wk@@6B@
??_7cHeap@mem@wk@@6B@
??_7cHeapExpandable@mem@wk@@6B@
??_7cHeapExtended@mem@wk@@6B@
??_7cSystemEvent@wk@@6B@
??_FEventLockObject@sync@m2@@QEAAXXZ
??_FFile@hx@@QEAAXXZ
??_FFileBMP@hx@@QEAAXXZ
??_FFileDDS@hx@@QEAAXXZ
??_FStreamBuffer@hx@@QEAAXXZ
?ALLOC_LENGTH@String@hx@@1IB
?AXIS_X@Vector3@hx@@2U12@B
?AXIS_Y@Vector3@hx@@2U12@B
?AXIS_Z@Vector3@hx@@2U12@B
?Add@cVec@math@wk@@SAXAEAV123@AEBV123@1@Z
?AddCloseThread@OSThreadCloseManager@wk@@QEAAXPEAX@Z
?AddXYZ@cVec@math@wk@@SAXAEAV123@AEBV123@1@Z
?AllClose@OSThreadCloseManager@wk@@QEAAXXZ
?Apply3@cMatrix@math@wk@@SAXAEAVcVec@23@AEBV123@AEBV423@@Z
?Apply3Array@cMatrix@math@wk@@SAXPEAVcVec@23@AEBV123@PEBV423@I@Z
?Apply@cMatrix@math@wk@@SAXAEAVcVec@23@AEBV123@AEBV423@@Z
?ApplyArray@cMatrix@math@wk@@SAXPEAVcVec@23@AEBV123@PEBV423@I@Z
?ApplyRot@cMatrix@math@wk@@SAXAEAVcVec@23@AEBV123@AEBV423@@Z
?ApplyRotArray@cMatrix@math@wk@@SAXPEAVcVec@23@AEBV123@PEBV423@I@Z
?Awake@ControllerManager@input@m2@@QEAAXXZ
?CaptureKeyCode@KeyBinding@input@m2@@QEAA?AW4KeyCode@23@W4JOY_ACTIDX@@@Z
?CheckButtonAllGamepad@ControllerManager@input@m2@@QEBAHV?$LargeBitValue@W4JOY_ACTIDX@@$0HJ@@3@W4M2_PAD_DEVICE_FLAG@23@@Z
?CheckButtonAllMotion@ControllerManager@input@m2@@QEBAHV?$LargeBitValue@W4JOY_ACTIDX@@$0HJ@@3@@Z
?CheckButtonAllNavigation@ControllerManager@input@m2@@QEBAHV?$LargeBitValue@W4JOY_ACTIDX@@$0HJ@@3@@Z
?CheckSteamConInput@ControllerManager@input@m2@@AEAAXXZ
?ClearAction@KeyBinding@input@m2@@QEAAXW4JOY_ACTIDX@@@Z
?ClearWaitingAndTryLock@BasicLockObject@sync@m2@@AEAAXAEAI@Z
?ConvertFrom@KeyBinding@input@m2@@QEBA?AV?$LargeBitValue@W4JOY_ACTIDX@@$0HJ@@3@W4KeyCode@23@@Z
?Copy@cMatrix@math@wk@@SAXAEAV123@AEBV123@@Z
?CreateHeap@ControllerManager@input@m2@@AEAAXXZ
?Cross@cVec@math@wk@@SAXAEAV123@AEBV123@1@Z
?DIEnumKbdCallback@ControllerManager@input@m2@@CAHPEBUDIDEVICEINSTANCEW@@PEAX@Z
?Divide@cVec@math@wk@@SAXAEAV123@AEBV123@1@Z
?DivideXYZ@cVec@math@wk@@SAXAEAV123@AEBV123@1@Z
?Dot@cVec@math@wk@@SAMAEBV123@0@Z
?DotSame@cVec@math@wk@@SAMAEBV123@@Z
?EnumDevice@ControllerManager@input@m2@@AEAAXXZ
?EnumDirectInputDevice@ControllerManager@input@m2@@AEAAXXZ
?EnumXInputDevice@ControllerManager@input@m2@@AEAAXXZ
?EventSetFlagBit@BasicLockObject@sync@m2@@0EB
?EventSetFlagValue@BasicLockObject@sync@m2@@0IB
?Finalize@ConfigManager@system@m2@@QEAAXXZ
?Finalize@ControllerManager@input@m2@@QEAAXXZ
?Finalize@TextureLoadASyncManager@hx@@QEAAXXZ
?FindAgentInputDeviceUID@ControllerManager@input@m2@@QEBAHXZ
?FtoI@cVec@math@wk@@SAXAEAV123@AEBV123@@Z
?GenUID@ControllerManager@input@m2@@AEAAHXZ
?GetAbsoluteCursor@InputDevice@input@m2@@QEBA_NAEAUCursorData@23@@Z
?GetActionSetHandle@ControllerManager@input@m2@@QEBA_KW4SteamActionSet@23@@Z
?GetAllMouseInputValue@ControllerManager@input@m2@@QEBAGW4GameKeyCode@23@@Z
?GetAllMouseInputValue@ControllerManager@input@m2@@QEBAGW4KeyCode@23@@Z
?GetAnalogActionHandle@ControllerManager@input@m2@@QEBA_KW4SteamAnalogAction@23@@Z
?GetBindKeyCodeList@KeyBinding@input@m2@@QEBAPEBW4KeyCode@23@XZ
?GetBindKeyCodeNum@KeyBinding@input@m2@@QEBAGXZ
?GetCursor@InputDevice@input@m2@@QEBA?AUCursorData@23@AEA_N@Z
?GetD3DResource@Buffer@render@m2@@UEBAPEAUID3D11Resource@@XZ
?GetD3DResource@Texture2D@render@m2@@UEBAPEAUID3D11Resource@@XZ
?GetD3DResource@Texture@render@m2@@UEBAPEAUID3D11Resource@@XZ
?GetDS4TouchPadScaleX@ControllerManager@input@m2@@QEBAMXZ
?GetDS4TouchPadScaleY@ControllerManager@input@m2@@QEBAMXZ
?GetDebugTimeString@ControllerManager@input@m2@@SAPEBDXZ
?GetDevice@ControllerManager@input@m2@@QEBAPEAVInputDevice@23@H@Z
?GetDeviceFlag@InputDevice@input@m2@@UEBA?AW4M2_PAD_DEVICE_FLAG@23@XZ
?GetDeviceInfos@ControllerManager@input@m2@@QEBAAEBV?$vector@UInputDeviceInfo@input@m2@@V?$ControlMgrAllocator@UInputDeviceInfo@input@m2@@@23@@std@@XZ
?GetDeviceType@InputDevice@input@m2@@UEBA?AW4M2_PAD_DEVICE_TYPE@23@XZ
?GetDigitalActionHandle@ControllerManager@input@m2@@QEBA_KW4SteamDigitalAction@23@@Z
?GetDiskFreeSpaceKB@m2@@YAHXZ
?GetDistance@cVec@math@wk@@SAMAEBV123@0@Z
?GetDistanceXZ@cVec@math@wk@@SAMAEBV123@0@Z
?GetGameInputMode@ControllerManager@input@m2@@QEBA?AW4GameInputMode@23@XZ
?GetGlobalGxPacket@hx@@YAAEAVGXPacket@1@XZ
?GetHwnd@render@m2@@YAPEAUHWND__@@XZ
?GetIdentity@cVec@math@wk@@SAPEBUsVec@23@XZ
?GetInputDeviceMethod@InputDevice@input@m2@@UEBA?AW4InputDeviceMethod@23@XZ
?GetInputValue@InputDevice@input@m2@@QEBAGW4GameKeyCode@23@@Z
?GetKey@JsonReader@json@m2@@QEBA_KPEAD_K@Z
?GetKeyCode@KeyBinding@input@m2@@QEAA?AW4KeyCode@23@V?$LargeBitValue@W4JOY_ACTIDX@@$0HJ@@3@@Z
?GetKeyUVData@KeyBinding@input@m2@@QEAA?AUKeyUVData@23@W4KeyCode@23@@Z
?GetLastPressedDeviceProduct@ControllerManager@input@m2@@QEBA?AW4M2_PAD_PRODUCT@23@XZ
?GetLastPressedDeviceUID@ControllerManager@input@m2@@QEBAHXZ
?GetLastPushUID@ControllerManager@input@m2@@QEBAHXZ
?GetLength@cVec@math@wk@@SAMAEBV123@@Z
?GetLengthXZ@cVec@math@wk@@SAMAEBV123@@Z
?GetLocalUserDataRootDirectory@m2@@YAPEBDXZ
?GetMargedAbsoluteCursor@InputDevice@input@m2@@QEBA_NAEAUCursorData@23@@Z
?GetMargedCursor@InputDevice@input@m2@@QEBA?AUCursorData@23@AEA_N@Z
?GetMargedOld@InputDevice@input@m2@@QEBA?AV?$LargeBitValue@W4JOY_ACTIDX@@$0HJ@@3@XZ
?GetMargedOn@InputDevice@input@m2@@QEBA?AV?$LargeBitValue@W4JOY_ACTIDX@@$0HJ@@3@XZ
?GetMargedPadData@InputDevice@input@m2@@QEBAAEBUM2PadData@23@XZ
?GetMargedPush@InputDevice@input@m2@@QEBA?AV?$LargeBitValue@W4JOY_ACTIDX@@$0HJ@@3@XZ
?GetMargedRelease@InputDevice@input@m2@@QEBA?AV?$LargeBitValue@W4JOY_ACTIDX@@$0HJ@@3@XZ
?GetNodeType@JsonReader@json@m2@@QEBA?AW4JsonNodeType@23@XZ
?GetOld@InputDevice@input@m2@@QEBA?AV?$LargeBitValue@W4JOY_ACTIDX@@$0HJ@@3@XZ
?GetOldActionData@InputDevice@input@m2@@QEBA?AV?$LargeBitValue@W4JOY_ACTIDX@@$0HJ@@3@XZ
?GetOldInputValue@InputDevice@input@m2@@QEBAGW4GameKeyCode@23@@Z
?GetOn@InputDevice@input@m2@@QEBA?AV?$LargeBitValue@W4JOY_ACTIDX@@$0HJ@@3@XZ
?GetOtherTouchPadScaleX@ControllerManager@input@m2@@QEBAMXZ
?GetOtherTouchPadScaleY@ControllerManager@input@m2@@QEBAMXZ
?GetPadData@InputDevice@input@m2@@QEBAAEBUM2PadData@23@XZ
?GetPathFileRoot@hx@@YAPEBDXZ
?GetProduct@InputDevice@input@m2@@QEBA?AW4M2_PAD_PRODUCT@23@XZ
?GetPush@InputDevice@input@m2@@QEBA?AV?$LargeBitValue@W4JOY_ACTIDX@@$0HJ@@3@XZ
?GetRelease@InputDevice@input@m2@@QEBA?AV?$LargeBitValue@W4JOY_ACTIDX@@$0HJ@@3@XZ
?GetRenderScale@Device@render@m2@@QEBAMXZ
?GetRenderScale@SwapChain@render@m2@@QEBAMXZ
?GetSaveDataRootDirectory@m2@@YAPEBDXZ
?GetSquareDistance@cVec@math@wk@@SAMAEBV123@0@Z
?GetSquareDistanceXZ@cVec@math@wk@@SAMAEBV123@0@Z
?GetSquareLength@cVec@math@wk@@SAMAEBV123@@Z
?GetSquareLengthXZ@cVec@math@wk@@SAMAEBV123@@Z
?GetSteamSyncObjectAddress@m2@@YAPEAVSyncObject@sync@1@XZ
?GetTotalAbsoluteCursorPoint@ControllerManager@input@m2@@QEBA_NW4M2_PAD_DEVICE_FLAG@23@AEAUCursorData@23@H@Z
?GetTotalButtonValue@ControllerManager@input@m2@@QEBA?AV?$LargeBitValue@W4JOY_ACTIDX@@$0HJ@@3@W4M2_PAD_DEVICE_FLAG@23@H@Z
?GetTotalCursorPoint@ControllerManager@input@m2@@QEBA?AUCursorData@23@W4M2_PAD_DEVICE_FLAG@23@AEA_NH@Z
?GetTotalOldActionData@ControllerManager@input@m2@@QEBA?AV?$LargeBitValue@W4JOY_ACTIDX@@$0HJ@@3@W4M2_PAD_DEVICE_FLAG@23@H@Z
?GetTotalPadData@ControllerManager@input@m2@@QEBA?AUM2PadData@23@W4M2_PAD_DEVICE_FLAG@23@H@Z
?GetUID@InputDevice@input@m2@@QEBAHXZ
?GetValueAsArray@JsonReader@json@m2@@QEBA?AV123@XZ
?GetValueAsBoolean@JsonReader@json@m2@@QEBA_NXZ
?GetValueAsInteger@JsonReader@json@m2@@QEBA_JXZ
?GetValueAsNumber@JsonReader@json@m2@@QEBANXZ
?GetValueAsObject@JsonReader@json@m2@@QEBA?AV123@XZ
?GetValueAsString@JsonReader@json@m2@@QEBA_KPEAD_K@Z
?GetValueInt@ConfigManager@system@m2@@QEAAIPEB_WI@Z
?GetValueString@ConfigManager@system@m2@@QEAA_NPEB_W0PEA_WI@Z
?HookWndProc@ControllerManager@input@m2@@CA_JH_K_J@Z
?IDENTITY@Matrix@hx@@2U12@B
?Identity@cMatrix@math@wk@@SAXAEAV123@@Z
?Identity@cVec@math@wk@@SAXAEAV123@@Z
?InitSteamConInput@ControllerManager@input@m2@@AEAAXXZ
?Initialize@ConfigManager@system@m2@@QEAAXXZ
?Initialize@ControllerManager@input@m2@@QEAA_NXZ
?Initialize@TextureLoadASyncManager@hx@@QEAAXXZ
?InputKeyCode@KeyBinding@input@m2@@QEAA?AW4KeyCode@23@XZ
?Inverse@cMatrix@math@wk@@SAXAEAV123@AEBV123@@Z
?InverseFast@cMatrix@math@wk@@SAXAEAV123@AEBV123@@Z
?IsForceMenuInputMode@ControllerManager@input@m2@@QEBA?AUb32@hx@@XZ
?IsKeyUVData@KeyBinding@input@m2@@QEAA_NW4KeyCode@23@@Z
?IsNativeInputMode@ControllerManager@input@m2@@QEBA?AUb32@hx@@XZ
?IsOnResume@ControllerManager@input@m2@@QEBA_NXZ
?IsPs2DispMode@m2@@YA_NXZ
?IsSpecificUserMode@ControllerManager@input@m2@@QEBA_NXZ
?IsStateChanging@ControllerManager@input@m2@@QEBA_NXZ
?IsXInputDevice@ControllerManager@input@m2@@CAHPEBU_GUID@@@Z
?ItoF@cVec@math@wk@@SAXAEAV123@AEBV123@@Z
?Load@KeyBinding@input@m2@@QEAAXXZ
?Lock@BasicLockObject@sync@m2@@UEAAXXZ
?Lock@EventLockObject@sync@m2@@UEAAXXZ
?Lock@SpinLockObject@sync@m2@@UEAAXXZ
?LockFlagBit@BasicLockObject@sync@m2@@0EB
?LockFlagValue@BasicLockObject@sync@m2@@0IB
?LookAt@cMatrix@math@wk@@SAXAEAV123@AEBVcVec@23@11@Z
?M2Context_@m2@@YAPEAVContext@render@1@XZ
?M2Render_@m2@@YAPEAVRender@system@1@XZ
?MAGIC_ID@FileDDS@hx@@2IB
?MARGIN_LENGTH@String@hx@@1IB
?MAX_LENGTH@String@hx@@1IB
?MAX_LOD@Desc@Sampler@render@m2@@2MB
?MAX_SECTORSIZE@File@hx@@2HB
?MIN_LOD@Desc@Sampler@render@m2@@2MB
?MakeRotateX@cMatrix@math@wk@@SAXAEAV123@M@Z
?MakeRotateY@cMatrix@math@wk@@SAXAEAV123@M@Z
?MakeRotateZ@cMatrix@math@wk@@SAXAEAV123@M@Z
?MakeScaling@cMatrix@math@wk@@SAXAEAV123@AEBVcVec@23@@Z
?MakeTrans@cMatrix@math@wk@@SAXAEAV123@AEBVcVec@23@@Z
?MargePadData@InputDevice@input@m2@@UEAAXXZ
?MarkWaitingAndTryLock@BasicLockObject@sync@m2@@AEAAXAEAI@Z
?MemClearHeap@mem@wk@@YAXAEAVcHeap@12@@Z
?MemDefaultHeapPtr@mem@wk@@3PEAVcHeap@12@EA
?MemSetDefaultHeap@mem@wk@@YAXAEAVcHeap@12@@Z
?Move@OSThreadCloseManager@wk@@QEAAXXZ
?Multiply@cMatrix@math@wk@@SAXAEAV123@AEBV123@1@Z
?Multiply@cVec@math@wk@@SAXAEAV123@AEBV123@1@Z
?MultiplyXYZ@cVec@math@wk@@SAXAEAV123@AEBV123@1@Z
?NUM_TABLE@String@hx@@1IB
?Normalize4@cVec@math@wk@@SAXAEAV123@AEBV123@@Z
?Normalize@cVec@math@wk@@SAXAEAV123@AEBV123@@Z
?Null@JsonReader@json@m2@@0QBDB
?OSDiffTick@wk@@YA?AUOSTick@1@U21@0@Z
?OSFPSToTicks@wk@@YA?AUOSTick@1@H@Z
?OSGetTick@wk@@YA?AUOSTick@1@XZ
?OSGetTime@wk@@YA_KXZ
?OSGetTimeRTC@wk@@YA_KXZ
?OSGetTimeRTCToDate@wk@@YAX_KPEAU_FILETIME@@@Z
?OSGetTimeUTCString@wk@@YAH_KPEAD0@Z
?OSInitTime@wk@@YAXXZ
?OSMicrosecondsToTicks@wk@@YA?AUOSTick@1@H@Z
?OSMillisecondsToTicks@wk@@YA?AUOSTick@1@H@Z
?OSSecondsToTicks@wk@@YA?AUOSTick@1@H@Z
?OSTermTime@wk@@YAXXZ
?OSTicksToMicroseconds64@wk@@YA_KUOSTick@1@@Z
?OSTicksToMicroseconds@wk@@YAHUOSTick@1@@Z
?OSTicksToSeconds@wk@@YAHUOSTick@1@@Z
?OSTimeToMicroseconds64@wk@@YA_K_K@Z
?OSTimeToTick@wk@@YA?AUOSTick@1@_K@Z
?OSTime_Test@wk@@YAXXZ
?OnProfileChanging@ControllerManager@input@m2@@QEAAXXZ
?OnResume@ControllerManager@input@m2@@QEAAXXZ
?OnSuspend@ControllerManager@input@m2@@QEAAXXZ
?OutputBMP@m2@@YA_NPEBDPEBEII@Z
?PathMax@File@hx@@2IB
?Projection@cMatrix@math@wk@@SAXAEAV123@MMMMMMMMM@Z
?Read@JsonReader@json@m2@@QEAA_NXZ
?RefreshBindKeyCodeList@KeyBinding@input@m2@@AEAAXXZ
?RefreshMargedPadData@InputDevice@input@m2@@QEAAXXZ
?RefreshPadData@InputDevice@input@m2@@QEAAXM@Z
?ResetData@InputDevice@input@m2@@UEAAXXZ
?ResizeWindow@m2@@YAXPEAUHWND__@@GG@Z
?RotateX@cMatrix@math@wk@@SAXAEAV123@AEBV123@M@Z
?RotateXYZ@cMatrix@math@wk@@SAXAEAV123@AEBV123@AEBVcVec@23@@Z
?RotateXr@cMatrix@math@wk@@SAXAEAV123@AEBV123@M@Z
?RotateY@cMatrix@math@wk@@SAXAEAV123@AEBV123@M@Z
?RotateYr@cMatrix@math@wk@@SAXAEAV123@AEBV123@M@Z
?RotateZ@cMatrix@math@wk@@SAXAEAV123@AEBV123@M@Z
?RotateZr@cMatrix@math@wk@@SAXAEAV123@AEBV123@M@Z
?Run@ControllerManager@input@m2@@QEAAXXZ
?SJIS_UTF8_UTF16_TABLE@String@hx@@1QAY122$$CBEA
?Save@KeyBinding@input@m2@@QEAAXXZ
?SaveTextureToBMP@m2@@YA_NPEBDPEAVTexture2D@render@1@@Z
?Scale@cVec@math@wk@@SAXAEAV123@AEBV123@M@Z
?ScaleXYZ@cVec@math@wk@@SAXAEAV123@AEBV123@M@Z
?ScreenCapture@m2@@YA_NPEBDI@Z
?SearchEndNumber@JsonReader@json@m2@@CAPEBDPEBD0@Z
?SearchEndScope@JsonReader@json@m2@@CAPEBDPEBD0DD@Z
?SetAcquire@ControllerManager@input@m2@@AEAAX_N@Z
?SetAcquire@InputDevice@input@m2@@UEAAX_N@Z
?SetAction@KeyBinding@input@m2@@QEAA_NW4KeyCode@23@V?$LargeBitValue@W4JOY_ACTIDX@@$0HJ@@3@@Z
?SetAndSaveDefault@KeyBinding@input@m2@@QEAAXXZ
?SetDefault@KeyBinding@input@m2@@QEAAXXZ
?SetForceMenuInputMode@ControllerManager@input@m2@@QEAAXUb32@hx@@@Z
?SetGameInputMode@ControllerManager@input@m2@@QEAAXW4GameInputMode@23@@Z
?SetHWND@ControllerManager@input@m2@@QEAAXPEAUHWND__@@@Z
?SetHwnd@render@m2@@YAXPEAUHWND__@@@Z
?SetLastPressedDevice@ControllerManager@input@m2@@QEAAXPEAVInputDevice@23@@Z
?SetLength@cVec@math@wk@@SAXAEAV123@AEBV123@M@Z
?SetNativeInputMode@ControllerManager@input@m2@@QEAAXUb32@hx@@@Z
?SetPs2DispMode@m2@@YAX_N@Z
?SetRenderScale@Device@render@m2@@QEAAXM@Z
?SetRenderScale@SwapChain@render@m2@@QEAAXM@Z
?SetSectionName@ConfigManager@system@m2@@QEAAXPEB_W@Z
?SetSpecificUserMode@ControllerManager@input@m2@@QEAAX_N@Z
?SetTrans@cMatrix@math@wk@@SAXAEAV123@AEBVcVec@23@@Z
?SetUserFilterEnabled@ControllerManager@input@m2@@QEAAX_N@Z
?SetVibrationToLastPressedDevice@ControllerManager@input@m2@@QEAAXEE@Z
?StopAllVibration@ControllerManager@input@m2@@QEAAXXZ
?Subtract@cVec@math@wk@@SAXAEAV123@AEBV123@1@Z
?SubtractXYZ@cVec@math@wk@@SAXAEAV123@AEBV123@1@Z
?SystemHeap@mem@wk@@3VcSystemHeap@12@A
?TMP_LENGTH@String@hx@@1IB
?Transpose@cMatrix@math@wk@@SAXAEAV123@AEBV123@@Z
?TryLock@BasicLockObject@sync@m2@@QEAA_NXZ
?Unlock@BasicLockObject@sync@m2@@UEAAXXZ
?Unlock@EventLockObject@sync@m2@@UEAAXXZ
?Unlock@SpinLockObject@sync@m2@@UEAAXXZ
?Update@ControllerManager@input@m2@@QEAAXMH@Z
?Update@InputDevice@input@m2@@UEAA_NMH@Z
?VERTEX_BUFFER_SLOT_COUNT_MAX@StageIA@Context@render@m2@@0IB
?WaitReleaseCommandList@Context@render@m2@@QEAAXXZ
?WillRemoveDeviceAt@ControllerManager@input@m2@@QEBA_NH@Z
?WriteValueInt@ConfigManager@system@m2@@QEAA_NPEB_WI@Z
?WriteValueString@ConfigManager@system@m2@@QEAA_NPEB_W0@Z
?ZERO@Matrix@hx@@2U12@B
?ZERO@Vector3@hx@@2U12@B
?_MemoryAlloc@mem@wk@@YAPEAX_KIAEAVcHeap@12@@Z
?_MemoryCalloc@mem@wk@@YAPEAX_KIAEAVcHeap@12@@Z
?_MemoryFree@mem@wk@@YAXPEAX@Z
?_MemoryFreeHeap@mem@wk@@YAXPEAXAEAVcHeap@12@@Z
?_MemoryRealloc@mem@wk@@YAPEAXPEAXIIAEAVcHeap@12@@Z
?_convertToMiscFlags@Buffer@render@m2@@IEAAII@Z
?_createBuffer@Device@render@m2@@QEAAPEAVBuffer@23@_KW4USAGE@2hx@@IIPEBUSubResource@23@IH@Z
?_createIndexBuffer@Device@render@m2@@QEAAPEAVBuffer@23@_KW4USAGE@2hx@@W4INDEX_TYPE@26@IPEBUSubResource@23@@Z
?_createVertexBuffer@Device@render@m2@@QEAAPEAVBuffer@23@_KW4USAGE@2hx@@HIPEBUSubResource@23@@Z
?_getFormatAlpha@PixelFormat@FileDDS@hx@@AEBA?AW4FORMAT@render@3@XZ
?_getFormatFourCC@PixelFormat@FileDDS@hx@@AEBA?AW4FORMAT@render@3@XZ
?_getFormatLuminance@PixelFormat@FileDDS@hx@@AEBA?AW4FORMAT@render@3@XZ
?_getFormatRGB@PixelFormat@FileDDS@hx@@AEBA?AW4FORMAT@render@3@XZ
?_instance@?1??getSingletonInstance@?$KernelSingletonObject@VConfigManager@system@m2@@@hx@@SAPEAVConfigManager@system@m2@@XZ@4V456@A
?_instance@?1??getSingletonInstance@?$KernelSingletonObject@VControllerManager@input@m2@@@hx@@SAPEAVControllerManager@input@m2@@XZ@4V456@A
?_instance@?1??getSingletonInstance@?$KernelSingletonObject@VKeyBinding@input@m2@@@hx@@SAPEAVKeyBinding@input@m2@@XZ@4V456@A
?_instance@?1??getSingletonInstance@?$KernelSingletonObject@VRender@system@m2@@@hx@@SAPEAVRender@system@m2@@XZ@4V456@A
?_instance@?1??getSingletonInstance@?$KernelSingletonObject@VTextureLoadASyncManager@hx@@@hx@@SAPEAVTextureLoadASyncManager@3@XZ@4V43@A
?_instance@?1??getSingletonInstance@?$KernelSingletonObject@VcSystemEvent@wk@@@hx@@SAPEAVcSystemEvent@wk@@XZ@4V45@A
?_instance@?1??getSingletonInstance@?$SingletonObject@VOSThreadCloseManager@wk@@@hx@@SAPEAVOSThreadCloseManager@wk@@XZ@4V45@A
?_instance@Region@hx@@0PEAV12@EA
?_load@Texture@hx@@AEAA?AUb32@2@PEAXHU32@@Z
?_pCurrentContext@Context@render@m2@@0PEAV123@EA
?_pathFileRoot@File@hx@@0PADA
?addAllocChainFree@cHeap@mem@wk@@IEAAXPEAUcAllocHeader@23@@Z
?addComma@String@hx@@QEAAXXZ
?addCount@Texture@hx@@QEAAXXZ
?addLoadTexture@TextureLoadASyncManager@hx@@QEAA?AUb32@2@PEAVTexture@2@PEAXHU32@@Z
?addRef@RefCounter@hx@@QEAAHXZ
?adjustAspectRatio2@Device@render@m2@@QEAAXN@Z
?adjustAspectRatio2@SwapChain@render@m2@@QEAAXNN@Z
?adjustAspectRatio3@SwapChain@render@m2@@QEAAXC@Z
?adjustAspectRatio@SwapChain@render@m2@@QEAAXMM@Z
?alloc@cDefiniteHeap@mem@wk@@QEAAPEAXXZ
?alloc@cHeap@mem@wk@@UEAAPEAX_KI@Z
?alloc@cHeapExpandable@mem@wk@@UEAAPEAX_KI@Z
?alloc@cHeapExtended@mem@wk@@UEAAPEAX_KI@Z
?allocString@String@hx@@IEAAPEADI@Z
?alloc_@cHeap@mem@wk@@IEAAPEAUcAllocHeader@23@PEAU423@_KI@Z
?allocate@?$ControlMgrAllocator@UDIDEVICEINSTANCEW@@@input@m2@@QEAAPEAUDIDEVICEINSTANCEW@@_K@Z
?allocate@?$ControlMgrAllocator@UDIDEVICEOBJECTINSTANCEW@@@input@m2@@QEAAPEAUDIDEVICEOBJECTINSTANCEW@@_K@Z
?allocate@?$ControlMgrAllocator@UInputDeviceInfo@input@m2@@@input@m2@@QEAAPEAUInputDeviceInfo@23@_K@Z
?asyncReleaseCommandList@Context@render@m2@@AEAAXPEAUID3D11CommandList@@@Z
?asyncReleaseCommandListRun@Context@render@m2@@AEAAXXZ
?atoi@String@hx@@SA_JPEBD@Z
?atoui@String@hx@@SA_KPEBD@Z
?backupScissor@GXPacket@hx@@QEAAXXZ
?begin@Context@render@m2@@QEAAXPEAVQuery@23@@Z
?begin@Device@render@m2@@QEAAXXZ
?begin@Render@system@m2@@UEAAXXZ
?begin@test@@YAXXZ
?cFullScreenCopyIndex@GXPacket@hx@@2IB
?cMiniRenderHeight@GXPacket@hx@@2HB
?cMiniRenderWidth@GXPacket@hx@@2HB
?cTopIndex@GXPacket@hx@@2IB
?calcLCM@math@hx@@YAIII@Z
?calcSurfaceInfo@render@hx@@YA?AUSurfaceInfo@12@HHW4FORMAT@12@@Z
?callClearCallback@cHeap@mem@wk@@IEAAXXZ
?cancelLoadTexture@TextureLoadASyncManager@hx@@QEAAXPEAVTexture@2@@Z
?checkWideMonitor@GXPacket@hx@@QEAAXHH@Z
?cleanup@Buffer@render@m2@@UEAAXXZ
?cleanup@Context@render@m2@@UEAAXXZ
?cleanup@Device@render@m2@@UEAAXXZ
?cleanup@RefCounter@hx@@UEAAXXZ
?cleanup@Render@system@m2@@UEAAXXZ
?cleanup@Sampler@render@m2@@UEAAXXZ
?cleanup@Scaler@render@m2@@UEAAXXZ
?cleanup@StreamBuffer@hx@@UEAAXXZ
?cleanup@StreamFile@hx@@UEAAXXZ
?cleanup@String@hx@@IEAAXXZ
?cleanup@SwapChain@render@m2@@UEAAXXZ
?cleanup@Texture2D@render@m2@@UEAAXXZ
?cleanup@Texture@hx@@QEAAXXZ
?clear@cDefiniteHeap@mem@wk@@QEAAXXZ
?clear@cHeap@mem@wk@@UEAAXXZ
?clear@cHeapExpandable@mem@wk@@UEAAXXZ
?clear@cHeapExtended@mem@wk@@UEAAXXZ
?clearDepthStencil@Context@render@m2@@QEAAXPEAVTexture2D@23@IME@Z
?clearKeepCurrentDisplay@SwapChain@render@m2@@QEAAXXZ
?clearRenderTarget@Context@render@m2@@QEAAXPEAVTexture2D@23@AEBUVector4@hx@@@Z
?clearRenderTarget@GXPacket@hx@@QEAAX_N0@Z
?clearRenderTarget@GXPacket@hx@@QEAAX_NI0@Z
?clearShaderResources@StagePS@Context@render@m2@@QEAAXIH@Z
?clearTexture2D@GXPacket@hx@@QEAAXXZ
?close@File@hx@@QEAAXXZ
?close@StreamFile@hx@@QEAAXXZ
?compare@String@hx@@QEBAHAEBV12@@Z
?compare@String@hx@@QEBAHPEBD@Z
?concat@String@hx@@IEAAXPEBD@Z
?containsAllocChainFree@cHeap@mem@wk@@IEAA_NPEAUcAllocHeader@23@@Z
?contract@StreamBuffer@hx@@QEAAXXZ
?copy@Context@render@m2@@QEAAXPEAVTexture2D@23@0@Z
?copy@File@hx@@SA?AUb32@2@PEBD0@Z
?copy@Scaler@render@m2@@QEAA?AUb32@hx@@PEAVTexture2D@23@0@Z
?copyResource@Context@render@m2@@QEAAXPEAVTexture2D@23@0@Z
?copyString@String@hx@@IEAA?AUb32@2@PEBD@Z
?copyTexture2D@Context@render@m2@@QEAAXPEAVTexture2D@23@0@Z
?copyTexture2DFromRenderTarget@Context@render@m2@@QEAAXPEAVTexture2D@23@0@Z
?copyTexture@Context@render@m2@@QEAA_NPEAVTexture2D@23@0@Z
?create@Buffer@render@m2@@UEAA?AUb32@hx@@_KW4USAGE@25@IIPEBUSubResource@23@IH@Z
?create@Sampler@render@m2@@QEAA?AUb32@hx@@AEBUDesc@123@@Z
?create@Texture2D@render@m2@@QEAA?AUb32@hx@@HHHW4FORMAT@25@W4USAGE@25@HIIPEAUSubResource@23@I@Z
?create@cDefiniteHeap@mem@wk@@QEAAXPEAXIII@Z
?create@cHeap@mem@wk@@QEAAPEAXIPEAV123@0@Z
?createComputeShader@Device@render@m2@@QEAAPEAVComputeShader@23@PEBX_KPEBD@Z
?createContext@Device@render@m2@@QEBAPEAVContext@23@XZ
?createDepthStencil@Device@render@m2@@QEAAPEAVTexture2D@23@HHW4FORMAT@2hx@@HHI@Z
?createDepthStencil@Texture2D@render@m2@@QEAA?AUb32@hx@@HHW4FORMAT@25@HHI@Z
?createDirectory@File@hx@@SA?AUb32@2@PEBD@Z
?createDirectoryEx@File@hx@@SA?AUb32@2@PEBD@Z
?createGeometryShader@Device@render@m2@@QEAAPEAVGeometryShader@23@PEBX_KPEBD2@Z
?createHeap@cHeap@mem@wk@@QEAAX_KPEAV123@W4M2MemoryProtection@23@@Z
?createInputLayout@Device@render@m2@@QEAAPEAVInputLayout@23@PEBUElement@423@HPEAVVertexShader@23@@Z
?createModelVertexBuffer@GXPacket@hx@@QEAA_NPEAPEAVBuffer@render@m2@@0II@Z
?createModelVertexBufferWithSkin@GXPacket@hx@@QEAA_NPEAPEAVBuffer@render@m2@@0II@Z
?createPixelShader@Device@render@m2@@QEAAPEAVPixelShader@23@PEBX_KPEBD@Z
?createQuery@Device@render@m2@@QEAAPEAVQuery@23@W4TYPE@423@I@Z
?createReadableTexture2D@Device@render@m2@@QEAAPEAVTexture2D@23@HHW4FORMAT@2hx@@@Z
?createRenderTarget@Device@render@m2@@QEAAPEAVTexture2D@23@HHW4FORMAT@2hx@@HHI@Z
?createRenderTarget@GXPacket@hx@@QEAAXGG@Z
?createRenderTarget@Texture2D@render@m2@@QEAA?AUb32@hx@@HHW4FORMAT@25@HHI@Z
?createRenderTarget@Texture2D@render@m2@@QEAA?AUb32@hx@@PEAUID3D11Texture2D@@PEAUID3D11RenderTargetView@@PEAUID3D11ShaderResourceView@@@Z
?createRenderTargetBatch@Device@render@m2@@QEAA?AUb32@hx@@QEBUSize@5@HW4FORMAT@25@HHIPEAPEAVTexture2D@23@@Z
?createRenderTargetBatch@Texture2D@render@m2@@SA?AUb32@hx@@QEBUSize@5@HW4FORMAT@25@HHIPEAPEAV123@@Z
?createSwapChain@Device@render@m2@@QEAAPEAVSwapChain@23@AEBUSize@hx@@W4FORMAT@26@HI@Z
?createTexture2D@Device@render@m2@@QEAAPEAVTexture2D@23@HHHW4FORMAT@2hx@@W4USAGE@26@HIIPEAUSubResource@23@I@Z
?createTexture@GXPacket@hx@@QEAA_NIIW4FORMAT@render@2@PEAVTexture2D@4m2@@@Z
?createTextureBuffer@GXPacket@hx@@QEAAPEAVTexture2D@render@m2@@IIW4FORMAT@42@@Z
?createVertexShader@Device@render@m2@@QEAAPEAVVertexShader@23@PEBX_K@Z
?cross@Vector3@hx@@SA?AU12@AEBU12@0@Z
?crossProduct@cVec@math@wk@@SA?AV123@AEBV123@0@Z
?ctos@String@hx@@SADD@Z
?cut@String@hx@@QEAAXII@Z
?cutBottom@String@hx@@QEAAXI@Z
?cutSub@String@hx@@IEAAXII@Z
?cutTop@String@hx@@QEAAXI@Z
?deallocate@?$ControlMgrAllocator@UDIDEVICEINSTANCEW@@@input@m2@@QEAAXPEAUDIDEVICEINSTANCEW@@_K@Z
?deallocate@?$ControlMgrAllocator@UDIDEVICEOBJECTINSTANCEW@@@input@m2@@QEAAXPEAUDIDEVICEOBJECTINSTANCEW@@_K@Z
?deallocate@?$ControlMgrAllocator@UInputDeviceInfo@input@m2@@@input@m2@@QEAAXPEAUInputDeviceInfo@23@_K@Z
?deleteModelVertexBuffer@GXPacket@hx@@QEAAXPEAVBuffer@render@m2@@0@Z
?deleteTexture@GXPacket@hx@@QEAAXPEAVTexture2D@render@m2@@@Z
?destroy@?$ControlMgrAllocator@UDIDEVICEINSTANCEW@@@input@m2@@QEAAXPEAUDIDEVICEINSTANCEW@@@Z
?destroy@?$ControlMgrAllocator@UDIDEVICEOBJECTINSTANCEW@@@input@m2@@QEAAXPEAUDIDEVICEOBJECTINSTANCEW@@@Z
?destroy@?$ControlMgrAllocator@UInputDeviceInfo@input@m2@@@input@m2@@QEAAXPEAUInputDeviceInfo@23@@Z
?destroy@cDefiniteHeap@mem@wk@@QEAAXXZ
?destroy@cHeap@mem@wk@@UEAAXXZ
?destroy@cHeapExpandable@mem@wk@@UEAAXXZ
?dot@Vector3@hx@@SAMAEBU12@0@Z
?dotProduct@cVec@math@wk@@SAMAEBV123@0@Z
?draw@Context@render@m2@@QEAAXHI@Z
?drawIndexed@Context@render@m2@@QEAAXHII@Z
?drawModelRenderBefore@GXPacket@hx@@QEAAXPEAVBuffer@render@m2@@0@Z
?drawModelRenderBeforeWithSkin@GXPacket@hx@@QEAAXPEAVBuffer@render@m2@@0@Z
?drawModelRenderMesh@GXPacket@hx@@QEAAXIIPEAVTexture@2@0@Z
?drawPrimitive@GXPacket@hx@@QEAAXW4PRIMITIVE_TYPE@render@2@HH@Z
?drawRenderTarget@GXPacket@hx@@QEAAXW4RENDER_TARGET@12@@Z
?dummy@?1???A?$LargeBitElement@W4JOY_ACTIDX@@$0A@@m2@@QEAAAEA_K_K@Z@4_KA
?dummy@?1???A?$LargeBitElement@W4JOY_ACTIDX@@$0A@@m2@@QEBAAEB_K_K@Z@4_KB
?end@Context@render@m2@@QEAAXPEAVQuery@23@@Z
?end@Device@render@m2@@QEAAXXZ
?end@GXPacket@hx@@QEAAXXZ
?end@Render@system@m2@@UEAAXXZ
?end@test@@YAXI@Z
?execScissor@GXPacket@hx@@AEAAXPEBUScissorInfo@12@@Z
?execScissor@GXPacket@hx@@AEAAXXZ
?executeCommandList@Context@render@m2@@QEAA?AUb32@hx@@XZ
?expandSlack@StreamBuffer@hx@@QEAA_N_K_N@Z
?finalize@Region@hx@@QEAAXXZ
?find@File@hx@@SA?AUb32@2@AEAVFileInfo@12@PEBD@Z
?find@String@hx@@QEBAHDI@Z
?find@String@hx@@QEBAHPEBDI@Z
?findReverse@String@hx@@QEBAHDH@Z
?finish@test@@YAXXZ
?flush@File@hx@@QEAAXXZ
?flush@StreamBuffer@hx@@UEAAXXZ
?flush@StreamFile@hx@@UEAAXXZ
?flushPostProcessCommand@SwapChain@render@m2@@QEAAXXZ
?flushShaderResources@StagePS@Context@render@m2@@QEAAXXZ
?forceDraw@GXPacket@hx@@QEAAXXZ
?format@String@hx@@QEAAAEBV12@PEBDZZ
?free@cDefiniteHeap@mem@wk@@QEAAXPEAX@Z
?free@cHeap@mem@wk@@UEAAXPEAX@Z
?free@cHeapExtended@mem@wk@@UEAAXPEAX@Z
?freeFromHeap@cHeap@mem@wk@@SAXPEAX@Z
?free_@cHeap@mem@wk@@MEAAXPEAX@Z
?fxaa2@Scaler@render@m2@@QEAAXPEAVTexture2D@23@0@Z
?getAllowQualityDecayLevel@Texture2D@render@m2@@QEBAHXZ
?getAllowedAnisotropicFilteringCount@Device@render@m2@@QEBAIXZ
?getAllowedAnisotropyRage@Device@render@m2@@QEBA?AW4AnisotropyRatio@Desc@Sampler@23@XZ
?getAlphaKill@Texture2D@render@m2@@QEBA?AUb32@hx@@XZ
?getApplyTextureQuality@Device@render@m2@@QEBA?AUb32@hx@@XZ
?getArea@Region@hx@@QEAAHXZ
?getAttribute@FileInfo@File@hx@@QEAA?AW4ATTRIBUTE@123@XZ
?getBackBuffer@SwapChain@render@m2@@QEBAPEAVTexture2D@23@XZ
?getBackColor@GXPacket@hx@@QEBAIXZ
?getBitsPerTextelFromFormat@render@hx@@YAIW4FORMAT@12@@Z
?getBlockSizeFromFormat@render@hx@@YA?AUSize@2@W4FORMAT@12@@Z
?getBootInfoValue@Region@hx@@AEAA_NPEBDI0PEADI@Z
?getBootInfoValueFromLine@Region@hx@@AEAA_NPEBDIPEADI@Z
?getBuffer@StreamBuffer@hx@@QEBAPEAEXZ
?getBufferDataType@Buffer@render@m2@@UEBA?AW4BUFFER_DATA_TYPE@@XZ
?getBufferSize@StreamBuffer@hx@@QEBA_KXZ
?getBytesSjisInUtf16@String@hx@@SAIPEBDUb32@2@@Z
?getBytesSjisInUtf8@String@hx@@SAIPEBDUb32@2@@Z
?getBytesUtf8InSjis@String@hx@@SAIPEBDUb32@2@@Z
?getBytesUtf8InUtf16@String@hx@@SAIPEBDUb32@2@@Z
?getCharBytesSjis@String@hx@@SAIPEBD@Z
?getCharBytesUtf8@String@hx@@SAIPEBD@Z
?getCreationTime@FileInfo@File@hx@@QEAA_KXZ
?getCurrentDisplayRect@Device@render@m2@@QEBA?BUtagRECT@@XZ
?getCurrentDisplayRect@SwapChain@render@m2@@QEBA?BUtagRECT@@XZ
?getCurrentRenderTarget@GXPacket@hx@@QEBA?AW4RENDER_TARGET@12@XZ
?getCurrentVertexBufferIndex@GXPacket@hx@@QEBAIXZ
?getD3DBuffer@Buffer@render@m2@@UEBAPEAUID3D11Buffer@@XZ
?getD3DBufferAddress@Buffer@render@m2@@UEBAPEBQEAUID3D11Buffer@@XZ
?getD3DDepthStencilView@Texture2D@render@m2@@QEBAPEAUID3D11DepthStencilView@@XZ
?getD3DDevice@Device@render@m2@@QEBAPEAUID3D11Device@@XZ
?getD3DDeviceContext@Context@render@m2@@QEBAPEAUID3D11DeviceContext@@XZ
?getD3DPlacementBuffer@Buffer@render@m2@@UEBAXPEAPEAUID3D11Buffer@@PEAPEAX@Z
?getD3DRenderTargetView@Texture2D@render@m2@@QEBAPEAUID3D11RenderTargetView@@XZ
?getD3DSampler@Sampler@render@m2@@QEAAPEAUID3D11SamplerState@@XZ
?getD3DSampler@Sampler@render@m2@@QEBAPEBUID3D11SamplerState@@XZ
?getD3DShaderResourceView@Texture2D@render@m2@@QEBAPEAUID3D11ShaderResourceView@@XZ
?getD3DTexture2D@Texture2D@render@m2@@QEBAPEAUID3D11Texture2D@@XZ
?getD3D_BIND_FLAG@render@hx@@YAII@Z
?getD3D_USAGE@render@hx@@YA?AW4D3D11_USAGE@@W4USAGE@12@@Z
?getDXGI_FORMAT@render@hx@@YA?AW4DXGI_FORMAT@@W4FORMAT@12@@Z
?getData@Context@render@m2@@QEAA?AUb32@hx@@PEAVQuery@23@PEAXI@Z
?getDefaultCpuAccessFlags@render@hx@@YAIW4USAGE@12@@Z
?getDepthStencil@Device@render@m2@@QEBAPEAVTexture2D@23@XZ
?getDepthStencil@GXPacket@hx@@QEAAPEAVTexture2D@render@m2@@XZ
?getDepthStencilRenderTarget@StageOM@Context@render@m2@@QEBAPEAVTexture2D@34@XZ
?getDesc@Sampler@render@m2@@QEBAXAEAUDesc@123@@Z
?getDevice@Render@system@m2@@QEBAPEAVDevice@render@3@XZ
?getDisplayResolution@Device@render@m2@@QEBAAEBUSize@hx@@XZ
?getFileHeader@FileBMP@hx@@QEBAPEBUFileHeader@12@XZ
?getFormat@PixelFormat@FileDDS@hx@@QEBA?AW4FORMAT@render@3@XZ
?getFormat@Texture2D@render@m2@@QEBA?AW4FORMAT@2hx@@XZ
?getFrameTexture@Texture@hx@@QEBAIXZ
?getFreeSizeHDDKB@Region@hx@@QEAAHXZ
?getHX_BIND_FLAG@render@hx@@YAII@Z
?getHX_FORMAT@render@hx@@YA?AW4FORMAT@12@W4DXGI_FORMAT@@@Z
?getHX_INPUT_CLASS@render@hx@@YA?AW4INPUT_CLASS@12@W4D3D11_INPUT_CLASSIFICATION@@@Z
?getHX_PRIMITIVE_TYPE@render@hx@@YA?AW4PRIMITIVE_TYPE@12@W4D3D_PRIMITIVE_TOPOLOGY@@@Z
?getHX_USAGE@render@hx@@YA?AW4USAGE@12@W4D3D11_USAGE@@@Z
?getHeader@FileDDS@hx@@QEBAPEBUHeader@12@XZ
?getHeaderDXT10@FileDDS@hx@@QEBAPEBUHeaderDXT10@12@XZ
?getHeapAddr@cDefiniteHeap@mem@wk@@QEAAPEAXXZ
?getHeapAddr@cHeap@mem@wk@@QEBAPEAXXZ
?getHeapPtr@cHeap@mem@wk@@SAPEAV123@PEAX@Z
?getHeapType@cHeapCommon@mem@wk@@QEBA?AW4eType@123@XZ
?getHeight@Texture2D@render@m2@@QEBAHXZ
?getHokanRateVector@GXPacket@hx@@QEBAPEAMXZ
?getINPUT_CLASSIFICATION@render@hx@@YA?AW4D3D11_INPUT_CLASSIFICATION@@W4INPUT_CLASS@12@@Z
?getImageTop@FileBMP@hx@@QEBAPEBXXZ
?getImageTop@FileDDS@hx@@QEBAPEBXXZ
?getImmediateContext@Device@render@m2@@QEBAPEAVContext@23@XZ
?getIndexBuffer@StageIA@Context@render@m2@@QEBAPEAVBuffer@34@XZ
?getIndexBufferOffset@StageIA@Context@render@m2@@QEBAIXZ
?getInfoHeader@FileBMP@hx@@QEBAPEBUInfoHeader@12@XZ
?getInputLayout@StageIA@Context@render@m2@@QEBAPEAVInputLayout@34@XZ
?getLastAccessTime@FileInfo@File@hx@@QEAA_KXZ
?getLastWriteTime@FileInfo@File@hx@@QEAA_KXZ
?getLastWriteTimeStr@FileInfo@File@hx@@QEAAAEBVString@3@XZ
?getLeadingOneCount@math@hx@@YAII@Z
?getLeadingZeroCount@math@hx@@YAII@Z
?getLoadThread@TextureLoadASyncManager@hx@@QEAAPEAUOSThread@wk@@XZ
?getLog2@math@hx@@YAII@Z
?getMappedD3DContext@IResource@render@m2@@QEBAPEAUID3D11DeviceContext@@XZ
?getModelInvProjectionMatrix@GXPacket@hx@@QEAAPEAUMatrix44@math@2@XZ
?getModelLocalWorldMatrix@GXPacket@hx@@QEAAPEAUMatrix44@math@2@XZ
?getModelViewProjectionMatrix@GXPacket@hx@@QEAAPEAUMatrix44@math@2@XZ
?getMultiSampleCount@Device@render@m2@@QEBAHXZ
?getMultiSampleCount@SwapChain@render@m2@@QEBAHXZ
?getMultiSampleCount@Texture2D@render@m2@@QEBAHXZ
?getMultiSampleMode@GXPacket@hx@@QEBA?AW4ERESOLVE_MODE@12@XZ
?getMultiSampleQuality@Device@render@m2@@QEBAHXZ
?getMultiSampleQuality@SwapChain@render@m2@@QEBAHXZ
?getName@FileInfo@File@hx@@QEAAAEBVString@3@XZ
?getNeedSize@cDefiniteHeap@mem@wk@@SAIIII@Z
?getNextUsedWork@cDefiniteHeap@mem@wk@@QEAAPEAXPEAX@Z
?getOnesCount@math@hx@@YAII@Z
?getOverride@Device@render@m2@@QEAA?AW4OVERRIDE@23@W4OVERRIDE_STATE@23@@Z
?getPRIMITIVE_TOPOLOGY@render@hx@@YA?AW4D3D_PRIMITIVE_TOPOLOGY@@W4PRIMITIVE_TYPE@12@@Z
?getParentDevice@Context@render@m2@@QEBAPEBVDevice@23@XZ
?getPath@File@hx@@QEBAPEBDXZ
?getPathRoot@File@hx@@SAPEBDXZ
?getPixelHeight@Texture2D@render@m2@@QEBAHXZ
?getPixelShaderType@GXPacket@hx@@AEAAHPEBVTexture2D@render@m2@@0_N@Z
?getPixelWidth@Texture2D@render@m2@@QEBAHXZ
?getPos@File@hx@@QEBAIXZ
?getPosition@StreamBuffer@hx@@UEAA_KXZ
?getPosition@StreamFile@hx@@UEAA_KXZ
?getPostAAMode@SwapChain@render@m2@@QEBA?AW4POST_AA_MODE@23@XZ
?getPrimitiveType@StageIA@Context@render@m2@@QEBA?AW4PRIMITIVE_TYPE@3hx@@XZ
?getRenderResolution@Device@render@m2@@QEBA?AUSize@hx@@XZ
?getRenderTarget@StageOM@Context@render@m2@@QEBAPEAVTexture2D@34@H@Z
?getRenderTargetTexture@GXPacket@hx@@QEAAPEAVTexture2D@render@m2@@W4RENDER_TARGET@12@@Z
?getRenderTargets@StageOM@Context@render@m2@@QEBAIIPEAPEAVTexture2D@34@@Z
?getResolution@Device@render@m2@@QEBA?BUSize@hx@@XZ
?getResolution@GXPacket@hx@@QEAAXAEAI0@Z
?getResolveMultiSample@GXPacket@hx@@QEBAIXZ
?getRevision@Region@hx@@QEAAHXZ
?getRootPath@storage@hx@@YAPEBDXZ
?getRuntimeFlag@Texture2D@render@m2@@QEBA?AW4TEX2D_RUNTIME_FLAG@23@XZ
?getSalesMarket@Region@hx@@QEAAHXZ
?getScaler@Device@render@m2@@QEBAPEAVScaler@23@XZ
?getShader@StageGS@Context@render@m2@@QEBAPEAVGeometryShader@34@XZ
?getShader@StagePS@Context@render@m2@@QEBAPEAVPixelShader@34@XZ
?getShader@StageVS@Context@render@m2@@QEBAPEAVVertexShader@34@XZ
?getShaderConstBuffer@GXPacket@hx@@QEBAPEAVBuffer@render@m2@@I@Z
?getSingletonInstance@?$KernelSingletonObject@VConfigManager@system@m2@@@hx@@SAPEAVConfigManager@system@m2@@XZ
?getSingletonInstance@?$KernelSingletonObject@VControllerManager@input@m2@@@hx@@SAPEAVControllerManager@input@m2@@XZ
?getSingletonInstance@?$KernelSingletonObject@VKeyBinding@input@m2@@@hx@@SAPEAVKeyBinding@input@m2@@XZ
?getSingletonInstance@?$KernelSingletonObject@VRender@system@m2@@@hx@@SAPEAVRender@system@m2@@XZ
?getSingletonInstance@?$KernelSingletonObject@VTextureLoadASyncManager@hx@@@hx@@SAPEAVTextureLoadASyncManager@2@XZ
?getSingletonInstance@?$KernelSingletonObject@VcSystemEvent@wk@@@hx@@SAPEAVcSystemEvent@wk@@XZ
?getSingletonInstance@?$SingletonObject@VOSThreadCloseManager@wk@@@hx@@SAPEAVOSThreadCloseManager@wk@@XZ
?getSingletonInstance@Region@hx@@SAPEAV12@XZ
?getSize@Buffer@render@m2@@UEBA_KXZ
?getSize@File@hx@@QEBAIXZ
?getSize@FileInfo@File@hx@@QEBA_KXZ
?getSize@StreamBuffer@hx@@UEBA_KXZ
?getSize@StreamFile@hx@@UEBA_KXZ
?getStride@Buffer@render@m2@@UEBAHXZ
?getString@String@hx@@QEAAPEADXZ
?getSwapChain@Device@render@m2@@QEBAPEAVSwapChain@23@XZ
?getSwapCount@GXPacket@hx@@QEBAIXZ
?getText@String@hx@@IEAAXPEAX@Z
?getTexture2D@Texture@hx@@QEBAPEAVTexture2D@render@m2@@XZ
?getTextureQuality@Device@render@m2@@QEBA?AW4TEXTURE_QUALITY@23@XZ
?getTrailingOneCount@math@hx@@YAII@Z
?getTrailingZeroCount@math@hx@@YAII@Z
?getUpperPow2@math@hx@@YAII@Z
?getUsableRefleshRates@SwapChain@render@m2@@QEAAAEBV?$vector@UDXGI_RATIONAL@@V?$allocator@UDXGI_RATIONAL@@@std@@@std@@XZ
?getVertexBuffer@StageIA@Context@render@m2@@QEBAPEAVBuffer@34@I@Z
?getVertexBufferOffset@StageIA@Context@render@m2@@QEBAII@Z
?getVertexBufferStride@StageIA@Context@render@m2@@QEBAII@Z
?getWidth@Texture2D@render@m2@@QEBAHXZ
?hasSkipedLastFrame@Device@render@m2@@QEBA_NXZ
?htoui@String@hx@@SA_KPEBD@Z
?hxMemSystemClear@mem@wk@@YAXXZ
?hxMemSystemInitialize@mem@wk@@YAX_K@Z
?hxMemSystemRelease@mem@wk@@YAXXZ
?icompare@String@hx@@QEAAHAEBV12@@Z
?icompare@String@hx@@QEAAHPEBD@Z
?identity@cVec@math@wk@@2UsVec@23@B
?init@Context@render@m2@@QEAA?AUb32@hx@@XZ
?init@Desc@Sampler@render@m2@@QEAAXXZ
?init@Device@render@m2@@QEAA?AUb32@hx@@AEBUConfig@23@@Z
?init@GXPacket@hx@@QEAAX_KI@Z
?init@Render@system@m2@@UEAA?AUb32@hx@@AEBUConfig@render@3@@Z
?init@Scaler@render@m2@@QEAA?AUb32@hx@@XZ
?init@String@hx@@IEAAXPEBD@Z
?init@SwapChain@render@m2@@QEAA?AUb32@hx@@AEBUSize@5@W4FORMAT@25@HI@Z
?init@cHeap@mem@wk@@AEAAXXZ
?init@test@@YAX_KI@Z
?initFrame@GXPacket@hx@@QEAAX_N@Z
?initReductionBuffer@GXPacket@hx@@QEAAXI@Z
?initRenderTarget@Texture2D@render@m2@@QEAA?AUb32@hx@@AEAV?$pointer@E@memory@5@IIHHW4FORMAT@25@HHI@Z
?initTexture2D@GXPacket@hx@@QEAAXXZ
?initialize@Region@hx@@QEAA_N_N@Z
?isAlphaToCoverage@GXPacket@hx@@QEAA?AUb32@2@XZ
?isBindErrorEnable@Region@hx@@QEAA_NXZ
?isBitMask@PixelFormat@FileDDS@hx@@QEBA?AUb32@3@IIII@Z
?isDebug@Region@hx@@QEAA_NXZ
?isDecodeSerial@Region@hx@@QEAA_NXZ
?isDirectory@File@hx@@SA?AUb32@2@PEBD@Z
?isDirectory@FileInfo@File@hx@@QEAA?AUb32@3@XZ
?isDrawSkip@Device@render@m2@@QEBA_NXZ
?isDxt10Header@FileDDS@hx@@QEBA?AUb32@2@XZ
?isExist@File@hx@@SA?AUb32@2@PEBD@Z
?isFinishLoad@TextureLoadASyncManager@hx@@QEAA?AUb32@2@PEAVTexture@2@@Z
?isFinishloadASync@Texture@hx@@QEAA?AUb32@2@XZ
?isFullScreen@Device@render@m2@@QEAA_NXZ
?isFullScreen@SwapChain@render@m2@@QEAA_NXZ
?isHalfCharSjis@String@hx@@SA?AUb32@2@PEBD@Z
?isHalfCharUtf8@String@hx@@SA?AUb32@2@PEBD@Z
?isInitialize@Texture@hx@@QEBA_NXZ
?isLoadThreadTerminate@TextureLoadASyncManager@hx@@QEAA?AUb32@2@XZ
?isMenuEnable@Region@hx@@QEAA_NXZ
?isOpened@File@hx@@QEBA?AUb32@2@XZ
?isPowerOf2@math@hx@@YA?AUb32@2@I@Z
?isReadable@File@hx@@QEBA?AUb32@2@XZ
?isReductionBuffer@GXPacket@hx@@QEBA_NXZ
?isTrophyEnable@Region@hx@@QEAA_NXZ
?isValid@FileBMP@hx@@QEBA?AUb32@2@XZ
?isValid@FileDDS@hx@@QEBA?AUb32@2@XZ
?isValid@Texture@hx@@QEBA_NXZ
?isValid@cHeap@mem@wk@@QEBA_NXZ
?isVisibleRevision@Region@hx@@QEAA_NXZ
?isWideMonitor@GXPacket@hx@@QEBA_NXZ
?isWritable@File@hx@@QEBA?AUb32@2@XZ
?itoa@String@hx@@SAX_JPEAD@Z
?kLOAD_LIST_MAX@TextureLoadASyncManager@hx@@0HB
?kMAX_SLOT@Sampler@render@m2@@2IB
?kRESERVE_THREAD_MAX@OSThreadCloseManager@wk@@0IB
?keepCurrentDisplay@SwapChain@render@m2@@QEAAXXZ
?left@String@hx@@QEAA?AV12@I@Z
?length@String@hx@@QEBAIXZ
?length@Vector3@hx@@QEBAMXZ
?lengthSq@Vector3@hx@@QEBAMXZ
?lineCopy@Region@hx@@AEAAIIPEADIPEBDI@Z
?lineNext@Region@hx@@AEAAIIPEBDI@Z
?load@Texture@hx@@QEAA?AUb32@2@PEAXHU32@@Z
?load@Texture@hx@@QEAA?AUb32@2@PEBDU32@@Z
?loadASync@Texture@hx@@QEAA?AUb32@2@PEAXHU32@@Z
?loadSetting@StageGS@Context@render@m2@@QEAAXXZ
?loadSetting@StageIA@Context@render@m2@@QEAAXXZ
?loadSetting@StageOM@Context@render@m2@@QEAAXXZ
?loadSetting@StagePS@Context@render@m2@@QEAAXXZ
?loadSetting@StageRS@Context@render@m2@@QEAAXXZ
?loadSetting@StageSO@Context@render@m2@@QEAAXXZ
?loadSetting@StageVS@Context@render@m2@@QEAAXXZ
?loadShaderStageSetting@Context@render@m2@@QEAAXXZ
?lock@CriticalSection@sync@hx@@QEAAXXZ
?lockModelVertexBuffer@GXPacket@hx@@QEAA_NPEAVBuffer@render@m2@@0PEAPEAXPEAPEAG@Z
?lockRegion@Region@hx@@AEAAXXZ
?lockVertexBuffer@GXPacket@hx@@QEAAPEAUGpuVertex@2@H@Z
?m_bDestroyed@ControllerManager@input@m2@@0_NA
?magnitude@cVec@math@wk@@QEBAMXZ
?makeTexture@Texture@hx@@AEAAPEAVTexture2D@render@m2@@PEBXHHHHW4FORMAT@42@@Z
?map@Context@render@m2@@QEAA?AUb32@hx@@PEAVIResource@23@IW4MAP@25@U45@PEAUSubResource@23@@Z
?map@IResource@render@m2@@UEAA?AUb32@hx@@PEAVContext@23@IW4MAP@25@U45@PEAUSubResource@23@@Z
?max_size@?$ControlMgrAllocator@UDIDEVICEINSTANCEW@@@input@m2@@QEBA_KXZ
?max_size@?$ControlMgrAllocator@UDIDEVICEOBJECTINSTANCEW@@@input@m2@@QEBA_KXZ
?max_size@?$ControlMgrAllocator@UInputDeviceInfo@input@m2@@@input@m2@@QEBA_KXZ
?move@File@hx@@SA?AUb32@2@PEBD0@Z
?normalize@Vector3@hx@@QEBA?AU12@XZ
?normalize@cVec@math@wk@@QEBA?AV123@XZ
?onPostDraw@Buffer@render@m2@@UEAAXXZ
?onPostExecuteCommandList@Buffer@render@m2@@UEAAXPEAVContext@23@@Z
?onPreDraw@Buffer@render@m2@@UEAAXXZ
?onResume@Device@render@m2@@QEAAXXZ
?onSetBufferGpu@Buffer@render@m2@@UEAAXXZ
?onSuspend@Device@render@m2@@QEAAXXZ
?open@File@hx@@QEAA?AUb32@2@PEBDI@Z
?open@StreamFile@hx@@QEAA?AUb32@2@PEBDI@Z
?perspectiveRH@Matrix@hx@@SA?AU12@AEBVRadian@math@2@MMM@Z
?pick@String@hx@@QEAA?AV12@II@Z
?pickBottom@String@hx@@QEAA?AV12@I@Z
?pickSub@String@hx@@IEAA?AV12@II@Z
?pickTop@String@hx@@QEAA?AV12@I@Z
?postCreate@cHeap@mem@wk@@MEAAXXZ
?postCreate@cHeapExtended@mem@wk@@MEAAXXZ
?postDraw@Context@render@m2@@QEAAXXZ
?postDraw@StageGS@Context@render@m2@@QEAAXXZ
?postDraw@StageIA@Context@render@m2@@QEAAXXZ
?postDraw@StagePS@Context@render@m2@@QEAAXXZ
?postDraw@StageVS@Context@render@m2@@QEAAXXZ
?postExecuteCommandList@Context@render@m2@@AEAAXXZ
?preDraw@Context@render@m2@@QEAAXXZ
?preDraw@StageGS@Context@render@m2@@QEAAXXZ
?preDraw@StageIA@Context@render@m2@@QEAAXXZ
?preDraw@StagePS@Context@render@m2@@QEAAXXZ
?preDraw@StageRS@Context@render@m2@@QEAAXXZ
?preDraw@StageVS@Context@render@m2@@QEAAXXZ
?read@File@hx@@QEAAIPEAXI@Z
?read@StreamBuffer@hx@@UEAA_KPEAX_K@Z
?read@StreamFile@hx@@UEAA_KPEAX_K@Z
?realloc@cHeap@mem@wk@@QEAAPEAXPEAX_KI@Z
?reflectRenderStateChanges@Context@render@m2@@QEAAX_N@Z
?registerClearCallback@cHeap@mem@wk@@QEAA_NPEAXP6AX0@Z@Z
?release@RefCounter@hx@@QEAAHXZ
?releaseRenderTargetExceptSubRenderTarget@GXPacket@hx@@QEAAXXZ
?releaseTextureBuffer@GXPacket@hx@@QEAAXPEAVTexture2D@render@m2@@@Z
?reloadZCull@Context@render@m2@@QEAAXPEAVTexture2D@23@@Z
?reloadZCull@Scaler@render@m2@@QEAAXM@Z
?remakeMultiSampleBuffers@Device@render@m2@@QEAA_NXZ
?remakeMultiSampleBuffers@SwapChain@render@m2@@QEAA_NXZ
?remakeMultiSampleRenderTarget@GXPacket@hx@@QEAAXXZ
?remove@File@hx@@SA?AUb32@2@PEBD@Z
?remove@cSystemEvent@wk@@QEAAXH@Z
?removeAllocChainFree@cHeap@mem@wk@@IEAAXPEAUcAllocHeader@23@@Z
?removeDirectory@File@hx@@SA?AUb32@2@PEBD@Z
?resetStateAll@Context@render@m2@@QEAAXXZ
?resetStateAll@StageGS@Context@render@m2@@QEAAXXZ
?resetStateAll@StageIA@Context@render@m2@@QEAAXXZ
?resetStateAll@StageOM@Context@render@m2@@QEAAXXZ
?resetStateAll@StagePS@Context@render@m2@@QEAAXXZ
?resetStateAll@StageRS@Context@render@m2@@QEAAXXZ
?resetStateAll@StageSO@Context@render@m2@@QEAAXXZ
?resetStateAll@StageVS@Context@render@m2@@QEAAXXZ
?resetToDefault@Context@render@m2@@QEAAXXZ
?resetToDefault@StageGS@Context@render@m2@@QEAAXXZ
?resetToDefault@StageIA@Context@render@m2@@QEAAXXZ
?resetToDefault@StageOM@Context@render@m2@@QEAAXXZ
?resetToDefault@StagePS@Context@render@m2@@QEAAXXZ
?resetToDefault@StageRS@Context@render@m2@@QEAAXXZ
?resetToDefault@StageSO@Context@render@m2@@QEAAXXZ
?resetToDefault@StageVS@Context@render@m2@@QEAAXXZ
?resizeBackBuffers@Device@render@m2@@QEAA_NGG@Z
?resizeBackBuffers@SwapChain@render@m2@@QEAA_NGG@Z
?resizeRenderBuffers@Device@render@m2@@QEAA_NGG@Z
?resizeRenderBuffers@SwapChain@render@m2@@QEAA_NGG@Z
?resizeWindow@Device@render@m2@@QEAA_NGG@Z
?resizeWindow@SwapChain@render@m2@@QEAA_NGG@Z
?resolve@Scaler@render@m2@@QEAAXPEAVTexture2D@23@H0HW4FORMAT@2hx@@0H0H@Z
?resolveFilterBackBuffer@GXPacket@hx@@QEAAXUb32@2@@Z
?resolveMultiSample@GXPacket@hx@@QEAAXXZ
?resolveMultiSample@SwapChain@render@m2@@QEAAXXZ
?resolveReductionBuffer@GXPacket@hx@@QEAAXI@Z
?resolveSubresource@Context@render@m2@@QEAAXPEAVTexture2D@23@H0HW4FORMAT@2hx@@@Z
?restoreScissor@GXPacket@hx@@QEAAXXZ
?reverse_alloc_@cHeapExtended@mem@wk@@IEAAPEAUcAllocHeader@23@PEAU423@_KI@Z
?revertMultiSample@GXPacket@hx@@QEAAXXZ
?revertMultiSample@SwapChain@render@m2@@QEAAXXZ
?right@String@hx@@QEAA?AV12@I@Z
?rotX@Matrix@hx@@SA?AU12@AEBVRadian@math@2@@Z
?rotY@Matrix@hx@@SA?AU12@AEBVRadian@math@2@@Z
?rotZ@Matrix@hx@@SA?AU12@AEBVRadian@math@2@@Z
?saveSetting@StageGS@Context@render@m2@@QEAAXXZ
?saveSetting@StageIA@Context@render@m2@@QEAAXXZ
?saveSetting@StageOM@Context@render@m2@@QEAAXXZ
?saveSetting@StagePS@Context@render@m2@@QEAAXXZ
?saveSetting@StageRS@Context@render@m2@@QEAAXXZ
?saveSetting@StageSO@Context@render@m2@@QEAAXXZ
?saveSetting@StageVS@Context@render@m2@@QEAAXXZ
?saveShaderStageSetting@Context@render@m2@@QEAAXXZ
?scale@Matrix@hx@@SA?AU12@M@Z
?scale@Matrix@hx@@SA?AU12@MMM@Z
?searchSjisCode@String@hx@@KAIEEI@Z
?seek@File@hx@@QEAAIHW4SEEK_TYPE@12@@Z
?seek@StreamBuffer@hx@@UEAA_K_JW4SEEK_TYPE@Stream@2@@Z
?seek@StreamFile@hx@@UEAA_K_JW4SEEK_TYPE@Stream@2@@Z
?set2DVertexBuffer@GXPacket@hx@@QEAAXXZ
?setAllowQualityDecayLevel@Texture2D@render@m2@@QEAAXH@Z
?setAllowedAnisotropicFilteringCount@Device@render@m2@@QEAA_NI@Z
?setAlphaCompare@GXPacket@hx@@QEAAXW4COMPARISON@render@2@E@Z
?setAlphaKill@Texture2D@render@m2@@QEAAXUb32@hx@@@Z
?setAlphaTest@StagePS@Context@render@m2@@QEAAXUb32@hx@@II0@Z
?setAlphaToCoverage@GXPacket@hx@@QEAAXUb32@2@@Z
?setAntiAliasingMode@GXPacket@hx@@QEAAXUb32@2@@Z
?setApplyTextureQuality@Device@render@m2@@QEAA?AUb32@hx@@U45@@Z
?setArea@Region@hx@@QEAAXH@Z
?setAreaFromBootInfo@Region@hx@@AEAAXPEAD@Z
?setAreaFromGeoID@Region@hx@@AEAAXHJ@Z
?setBackColor@GXPacket@hx@@QEAAXI@Z
?setBlendMode@GXPacket@hx@@QEAAXW4_WKBlendMode@@W4_WKBlendFactor@@1@Z
?setConstantBuffer@StageGS@Context@render@m2@@QEAAXIPEAVBuffer@34@@Z
?setConstantBuffer@StagePS@Context@render@m2@@QEAAXIPEAVBuffer@34@@Z
?setConstantBuffer@StageVS@Context@render@m2@@QEAAXIPEAVBuffer@34@@Z
?setConstantBuffers@StageGS@Context@render@m2@@QEAAXIIPEBQEAVBuffer@34@@Z
?setConstantBuffers@StagePS@Context@render@m2@@QEAAXIIPEBQEAVBuffer@34@@Z
?setConstantBuffers@StageVS@Context@render@m2@@QEAAXIIPEBQEAVBuffer@34@@Z
?setCullMode@GXPacket@hx@@QEAAXW4CULLMODE@12@@Z
?setCurrentScreenSize@GXPacket@hx@@QEAAXXZ
?setCurrentVertexBufferIndex@GXPacket@hx@@QEAAXI@Z
?setDefaultContext@Context@render@m2@@SAXPEAV123@@Z
?setDepthStencil@GXPacket@hx@@QEAAXPEAVTexture2D@render@m2@@@Z
?setDepthStencilID@GXPacket@hx@@QEAAXW4DEPTHRENDER_TARGET@12@@Z
?setDisplayScreenSize@GXPacket@hx@@QEAAXM@Z
?setDrawSkip@Device@render@m2@@QEAAX_N@Z
?setEnd@File@hx@@QEAAXXZ
?setFrameTexture@Texture@hx@@QEAAXI@Z
?setFreeSizeHDDKB@Region@hx@@QEAAXH@Z
?setFullScreen@SwapChain@render@m2@@QEAAX_NII@Z
?setHokanRateParam@GXPacket@hx@@QEAAXM@Z
?setIndexBuffer@StageIA@Context@render@m2@@QEAAXPEAVBuffer@34@I@Z
?setInputLayout@StageIA@Context@render@m2@@QEAAXPEAVInputLayout@34@@Z
?setInvProjectionMatrix@GXPacket@hx@@QEAAXAEBUMatrix44@math@2@@Z
?setLanczosParameter@Scaler@render@m2@@AEAAXPEAVPixelShader@23@MAEBUSize@hx@@@Z
?setLocalWorldMatrix@GXPacket@hx@@QEAAXAEBUMatrix44@math@2@@Z
?setMappedD3DContext@IResource@render@m2@@QEAAXPEAUID3D11DeviceContext@@@Z
?setModelInvProjectionMatrix@GXPacket@hx@@QEAAXAEBUMatrix44@math@2@@Z
?setModelLocalWorldMatrix@GXPacket@hx@@QEAAXAEBUMatrix44@math@2@@Z
?setModelViewProjectionMatrix@GXPacket@hx@@QEAAXAEBUMatrix44@math@2@@Z
?setMultiSampleCountAndQuality@Device@render@m2@@QEAA_NHH@Z
?setMultiSampleCountAndQuality@SwapChain@render@m2@@QEAA_NHH@Z
?setMultiSampleMode@GXPacket@hx@@QEAAXW4ERESOLVE_MODE@12@@Z
?setOverride@Device@render@m2@@QEAAXW4OVERRIDE_STATE@23@W4OVERRIDE@23@@Z
?setPathRoot@File@hx@@SAXPEBD@Z
?setPixelShader@GXPacket@hx@@QEAAXW4PIXEL_SHADER_TYPE@12@@Z
?setPixelShaderF@GXPacket@hx@@QEAAXW4PIXEL_SHADER_TYPE@12@@Z
?setPixelShaderParam@GXPacket@hx@@QEAAXPEAVPixelShader@render@m2@@QEBDPEBM@Z
?setPixelShaderParam@GXPacket@hx@@QEAAXW4PIXEL_SHADER_TYPE@12@QEBDPEBM@Z
?setPixelShaderType@GXPacket@hx@@AEAAXHPEBVTexture2D@render@m2@@@Z
?setPostAAMode@SwapChain@render@m2@@QEAAXW4POST_AA_MODE@23@@Z
?setPrimitiveType@StageIA@Context@render@m2@@QEAA?AW4PRIMITIVE_TYPE@3hx@@W4536@@Z
?setRefleshRate@SwapChain@render@m2@@QEAAXAEBUDXGI_RATIONAL@@@Z
?setRenderMode@GXPacket@hx@@QEAAXH@Z
?setRenderState@Context@render@m2@@QEAAIW4RENDER_STATE@2hx@@I@Z
?setRenderTargets@StageOM@Context@render@m2@@QEAAXHQEAPEAVTexture2D@34@PEAV534@@Z
?setRootPath@storage@hx@@YA?AUb32@2@PEBD@Z
?setRuntimeFlag@Texture2D@render@m2@@QEAAXW4TEX2D_RUNTIME_FLAG@23@@Z
?setScissor@GXPacket@hx@@QEAAXPEBUScissorInfo@12@@Z
?setScissor@StageRS@Context@render@m2@@QEAAXAEBUScissorRect@34@@Z
?setShader@StageGS@Context@render@m2@@QEAAXPEAVGeometryShader@34@@Z
?setShader@StagePS@Context@render@m2@@QEAAXPEAVPixelShader@34@@Z
?setShader@StageVS@Context@render@m2@@QEAAXPEAVVertexShader@34@@Z
?setShaderResources@StagePS@Context@render@m2@@QEAAXIHQEAPEBVTexture2D@34@PEAUDesc@Sampler@34@@Z
?setSize@File@hx@@QEAAXXZ
?setSmoothShadeMode@GXPacket@hx@@QEAAXI@Z
?setStateToDefault@GXPacket@hx@@QEAAX_N@Z
?setText@String@hx@@IEAAXPEBX@Z
?setTexture2D@GXPacket@hx@@QEAAXPEBVTexture2D@render@m2@@0_N@Z
?setTexture2D@Texture@hx@@QEAAXPEAVTexture2D@render@m2@@@Z
?setTexture2DSP@GXPacket@hx@@QEAAXPEBVTexture2D@render@m2@@00@Z
?setTexture@GXPacket@hx@@QEAAXPEBVTexture@2@0@Z
?setTextureQuality@Device@render@m2@@QEAAXW4TEXTURE_QUALITY@23@@Z
?setVertexBuffers@StageIA@Context@render@m2@@QEAAXIHQEAPEAVBuffer@34@QEBI1@Z
?setVertexShader@GXPacket@hx@@QEAAXW4VERTEX_SHADER_TYPE@12@@Z
?setViewProjectionMatrix@GXPacket@hx@@QEAAXAEBUMatrix44@math@2@@Z
?setViewport@StageRS@Context@render@m2@@QEAAXAEBUViewport@3hx@@@Z
?setViewports@StageRS@Context@render@m2@@QEAAXHUViewport@3hx@@@Z
?setWrap@Device@render@m2@@QEAAXII@Z
?setWrap@StagePS@Context@render@m2@@QEAAXW4Wrap@Desc@Sampler@34@00@Z
?setWrap@Texture@hx@@SAXW4RENDERSTATE@12@0@Z
?setXY@cVec@math@wk@@QEAAXMM@Z
?setXYZ@cVec@math@wk@@QEAAXMMM@Z
?setXYZW@cVec@math@wk@@QEAAXMMMM@Z
?setZMode@GXPacket@hx@@QEAAXIW4COMPARISON@render@2@I@Z
?setup@Context@render@m2@@QEAA?AUb32@hx@@XZ
?sjisToUtf8@String@hx@@SAXPEBDPEAD@Z
?sortAllocChainFree@cHeap@mem@wk@@IEAAXXZ
?squareMag@cVec@math@wk@@QEBAMXZ
?stoc@String@hx@@SADD@Z
?strHalfLenMulti@String@hx@@SA_KPEBD@Z
?strHalfLenSjis@String@hx@@SA_KPEBD@Z
?strHalfLenUtf8@String@hx@@SA_KPEBD@Z
?strLenMulti@String@hx@@SA_KPEBD@Z
?strLenSjis@String@hx@@SA_KPEBD@Z
?strLenUtf8@String@hx@@SA_KPEBD@Z
?stretchRect@Scaler@render@m2@@QEAA?AUb32@hx@@PEAVTexture2D@23@PEBURectF@5@01W4FILTER_TYPE@123@@Z
?stricmp@String@hx@@SAHPEBD0@Z
?subXZ@cVec@math@wk@@QEAA?AV123@AEBV123@@Z
?suballoc@cHeap@mem@wk@@IEAAPEAXPEAUcAllocHeader@23@_KI@Z
?substr@String@hx@@QEAA?AV12@II@Z
?swap@Device@render@m2@@QEAAXI@Z
?swap@Render@system@m2@@UEAAXI@Z
?swap@SwapChain@render@m2@@QEAAXI@Z
?swapRenderTarget@GXPacket@hx@@QEAAXW4RENDER_TARGET@12@_N@Z
?transMatrix@GXPacket@hx@@QEAAXXZ
?transModelMatrixNoSkin@GXPacket@hx@@QEAAXPEBUMatrix44@math@2@@Z
?transModelMatrixSkin@GXPacket@hx@@QEAAXPEBUMatrix44@math@2@I@Z
?transProjectionViewMatrix@GXPacket@hx@@QEAAXXZ
?transTexCoordinateMatrix@GXPacket@hx@@QEAAXAEBUMatrix44@math@2@@Z
?transVectors@GXPacket@hx@@QEAAXPEBMII@Z
?transVectors@GXPacket@hx@@QEAAXPEBMIIPEAVContext@render@m2@@@Z
?transVectors@GXPacket@hx@@QEAAXPEBMIPEBD@Z
?uitoa@String@hx@@SAX_KPEAD@Z
?unlock@CriticalSection@sync@hx@@QEAAXXZ
?unlockModelVertexBuffer@GXPacket@hx@@QEAAXPEAVBuffer@render@m2@@0@Z
?unlockVertexBuffer@GXPacket@hx@@QEAAXW4PRIMITIVE_TYPE@render@2@@Z
?unlockVertexBufferNonDraw@GXPacket@hx@@QEAAXXZ
?unmap@Context@render@m2@@QEAAXPEAVIResource@23@I@Z
?unmap@IResource@render@m2@@UEAAXI@Z
?update@GXPacket@hx@@QEAAXIP6AIPEAX@ZP6AX0@Z0@Z
?update@cSystemEvent@wk@@QEAAXXZ
?updateAnalogValue@InputDevice@input@m2@@IEAAMMMW4GameKeyCode@23@0@Z
?updateLoadThread@TextureLoadASyncManager@hx@@QEAAXXZ
?updateSubresorce@Context@render@m2@@QEAAXPEAVIResource@23@AEBUSubResource@23@@Z
?updateSubresorce@IResource@render@m2@@UEAAXPEAVContext@23@AEBUSubResource@23@@Z
?updateValues@Region@hx@@AEAAXPEBDI@Z
?utf8ToSjis@String@hx@@SA?AUb32@2@PEBDPEAD@Z
?view@Matrix@hx@@SA?AU12@AEBUVector3@2@00@Z
?wcharToChar@m2@@YAHPEB_WPEAD_K@Z
?write@File@hx@@QEAAIPEBXI@Z
?write@StreamBuffer@hx@@UEAA_KPEAX_K@Z
?write@StreamFile@hx@@UEAA_KPEAX_K@Z
?writeFormat@StreamBuffer@hx@@QEAA_KPEBDZZ
?writeString@StreamBuffer@hx@@QEAA_KPEBD@Z
?zBias@GXPacket@hx@@QEAAXMM@Z
?zBiasInvalidation@GXPacket@hx@@QEAAXXZ
C_MTXFrustum
C_MTXIdentity
C_MTXOrtho
DBG_SCSetLanguage
OSCompCalledThreadId
OSCreateThread
OSDestroySemaphore
OSExitThread
OSFinalize
OSInitSemaphore
OSInitThreadQueue
OSInitialize
OSIsJoinEnableThread
OSIsSleepThread
OSIsSuspendThread
OSResumeThread
OSSetJoinDisableThread
OSSetThreadPriority
OSSignalSemaphore
OSSleepThread
OSWaitSemaphore
OSWaitThreadExit
OSWakeupThread
OSYieldThread
SCGetAspectRatio
SCGetDisplayHeight
SCGetDisplayWidth
SCGetEnterButton
SCGetLanguage
SCGetProgressiveMode
SCGetSoundMode
SCSetEnterButton
wkPADGetPeriphInfo
wkWPADControlMotor
wkWPADInit
wkWPADProbe
wkWPADRead
wkWPADRead2
wkWPADSetting
wkWPADShutdown