EXPORTS
?$TSS0@?1??getSingletonInstance@?$MainSingletonObject@VPCGraphicsSettings@m2@@@hx@@SAPEAVPCGraphicsSettings@m2@@XZ@4HA
?$TSS0@?1??getSingletonInstance@?$MainSingletonObject@VRespectControl@m2@@@hx@@SAPEAVRespectControl@m2@@XZ@4HA
?$TSS0@?1??getSingletonInstance@?$MainSingletonObject@VWindowControl@m2@@@hx@@SAPEAVWindowControl@m2@@XZ@4HA
?$TSS0@?1??getSingletonInstance@?$SingletonObject@VResourceReadConfig@m2@@@hx@@SAPEAVResourceReadConfig@m2@@XZ@4HA
?$TSS0@?1??getSingletonInstance@?$SingletonObject@VSystemConfig@m2@@@hx@@SAPEAVSystemConfig@m2@@XZ@4HA
??0?$MainSingletonObject@VPCGraphicsSettings@m2@@@hx@@QEAA@AEBV01@@Z
??0?$MainSingletonObject@VPCGraphicsSettings@m2@@@hx@@QEAA@XZ
??0?$MainSingletonObject@VRespectControl@m2@@@hx@@QEAA@AEBV01@@Z
??0?$MainSingletonObject@VRespectControl@m2@@@hx@@QEAA@XZ
??0?$MainSingletonObject@VWindowControl@m2@@@hx@@QEAA@AEBV01@@Z
??0?$MainSingletonObject@VWindowControl@m2@@@hx@@QEAA@XZ
??0?$SingletonObject@VResourceReadConfig@m2@@@hx@@QEAA@AEBV01@@Z
??0?$SingletonObject@VResourceReadConfig@m2@@@hx@@QEAA@XZ
??0?$SingletonObject@VSystemConfig@m2@@@hx@@QEAA@AEBV01@@Z
??0?$SingletonObject@VSystemConfig@m2@@@hx@@QEAA@XZ
??0PCGraphicsSettings@m2@@QEAA@$$QEAV01@@Z
??0PCGraphicsSettings@m2@@QEAA@AEBV01@@Z
??0PCGraphicsSettings@m2@@QEAA@XZ
??0ResourceReadConfig@m2@@QEAA@$$QEAV01@@Z
??0ResourceReadConfig@m2@@QEAA@AEBV01@@Z
??0ResourceReadConfig@m2@@QEAA@XZ
??0RespectControl@m2@@QEAA@$$QEAV01@@Z
??0RespectControl@m2@@QEAA@AEBV01@@Z
??0RespectControl@m2@@QEAA@XZ
??0SystemConfig@m2@@QEAA@$$QEAV01@@Z
??0SystemConfig@m2@@QEAA@AEBV01@@Z
??0SystemConfig@m2@@QEAA@XZ
??0WindowControl@m2@@QEAA@$$QEAV01@@Z
??0WindowControl@m2@@QEAA@AEBV01@@Z
??0WindowControl@m2@@QEAA@XZ
??0cObjAtari@@QEAA@XZ
??0cPad@@QEAA@AEBV0@@Z
??0cPad@@QEAA@XZ
??0hxPadAssign@hx@@QEAA@AEBV01@@Z
??0hxPadAssign@hx@@QEAA@XZ
??1?$MainSingletonObject@VPCGraphicsSettings@m2@@@hx@@UEAA@XZ
??1?$MainSingletonObject@VRespectControl@m2@@@hx@@UEAA@XZ
??1?$MainSingletonObject@VWindowControl@m2@@@hx@@UEAA@XZ
??1?$SingletonObject@VResourceReadConfig@m2@@@hx@@UEAA@XZ
??1?$SingletonObject@VSystemConfig@m2@@@hx@@UEAA@XZ
??1PCGraphicsSettings@m2@@UEAA@XZ
??1ResourceReadConfig@m2@@UEAA@XZ
??1RespectControl@m2@@UEAA@XZ
??1SystemConfig@m2@@UEAA@XZ
??1WindowControl@m2@@UEAA@XZ
??1cObjAtari@@QEAA@XZ
??1cPad@@QEAA@XZ
??1hxPadAssign@hx@@UEAA@XZ
??4?$MainSingletonObject@VPCGraphicsSettings@m2@@@hx@@QEAAAEAV01@AEBV01@@Z
??4?$MainSingletonObject@VRespectControl@m2@@@hx@@QEAAAEAV01@AEBV01@@Z
??4?$MainSingletonObject@VWindowControl@m2@@@hx@@QEAAAEAV01@AEBV01@@Z
??4?$SingletonObject@VResourceReadConfig@m2@@@hx@@QEAAAEAV01@AEBV01@@Z
??4?$SingletonObject@VSystemConfig@m2@@@hx@@QEAAAEAV01@AEBV01@@Z
??4PCGraphicsSettings@m2@@QEAAAEAV01@$$QEAV01@@Z
??4PCGraphicsSettings@m2@@QEAAAEAV01@AEBV01@@Z
??4ResourceReadConfig@m2@@QEAAAEAV01@$$QEAV01@@Z
??4ResourceReadConfig@m2@@QEAAAEAV01@AEBV01@@Z
??4RespectControl@m2@@QEAAAEAV01@$$QEAV01@@Z
??4RespectControl@m2@@QEAAAEAV01@AEBV01@@Z
??4SystemConfig@m2@@QEAAAEAV01@$$QEAV01@@Z
??4SystemConfig@m2@@QEAAAEAV01@AEBV01@@Z
??4WindowControl@m2@@QEAAAEAV01@$$QEAV01@@Z
??4WindowControl@m2@@QEAAAEAV01@AEBV01@@Z
??4cLog@@QEAAAEAV0@$$QEAV0@@Z
??4cLog@@QEAAAEAV0@AEBV0@@Z
??4cLogWork@@QEAAAEAV0@$$QEAV0@@Z
??4cLogWork@@QEAAAEAV0@AEBV0@@Z
??4cObjAtari@@QEAAAEAV0@AEBV0@@Z
??4cPad@@QEAAAEAV0@AEBV0@@Z
??4hxPadAssign@hx@@QEAAAEAV01@AEBV01@@Z
??_7?$MainSingletonObject@VPCGraphicsSettings@m2@@@hx@@6B@
??_7?$MainSingletonObject@VRespectControl@m2@@@hx@@6B@
??_7?$MainSingletonObject@VWindowControl@m2@@@hx@@6B@
??_7?$SingletonObject@VResourceReadConfig@m2@@@hx@@6B@
??_7?$SingletonObject@VSystemConfig@m2@@@hx@@6B@
??_7PCGraphicsSettings@m2@@6B@
??_7ResourceReadConfig@m2@@6B@
??_7RespectControl@m2@@6B@
??_7SystemConfig@m2@@6B@
??_7WindowControl@m2@@6B@
??_7hxPadAssign@hx@@6B@
?ActAllStop@cPad@@QEAAXXZ
?ActSet@cPad@@QEAAXII@Z
?ActStart@cPad@@QEAAXI@Z
?ActStop@cPad@@QEAAXI@Z
?Actuater@cPad@@QEAAXXZ
?AdjusatCameraMove@cPad@@AEAAXPEBUKEY_WORK@@PEBUsJoyWork@@AEAF2AEA_N@Z
?AdjustCamera@cPad@@AEAAXGPEAUKEY_WORK@@PEBUsJoyWork@@@Z
?Finalize@cPad@@QEAAXXZ
?GetAAMode@SystemConfig@m2@@QEBA?AW4AA_MODE@2@XZ
?GetAFMode@SystemConfig@m2@@QEBA?AW4AF_MODE@2@XZ
?GetAnisotropicFiltering@PCGraphicsSettings@m2@@QEBA?AW4AF_MODE@2@XZ
?GetEnterButtonAssign@SystemConfig@m2@@QEBA?AW4ENTER_BUTTON_ASSIGN@2@XZ
?GetGlobalPad@@YAAEAVcPad@@XZ
?GetPPAAMode@SystemConfig@m2@@QEBA?AW4PPAA_MODE@2@XZ
?GetPostProcessAAMode@PCGraphicsSettings@m2@@QEBA?AW4PPAA_MODE@2@XZ
?GetRefleshRate@SystemConfig@m2@@QEBAMXZ
?GetRenderScale@SystemConfig@m2@@QEBAMXZ
?GetRespectMode@SystemConfig@m2@@QEBA_NXZ
?GetTQMode@SystemConfig@m2@@QEBA?AW4TQ_MODE@2@XZ
?GetTextureQuality@PCGraphicsSettings@m2@@QEBA?AW4TQ_MODE@2@XZ
?GetUseCipherResource@ResourceReadConfig@m2@@QEBA?AUb32@hx@@XZ
?GetUseCompressedResource@ResourceReadConfig@m2@@QEBA?AUb32@hx@@XZ
?GetUseResourceType@ResourceReadConfig@m2@@QEBA?AW4UseResourceType@12@XZ
?GetVsync@PCGraphicsSettings@m2@@QEBA_NXZ
?GetVsync@SystemConfig@m2@@QEBA_NXZ
?GetWindowPos@SystemConfig@m2@@QEBA?BUSize@hx@@XZ
?GetWindowSize@SystemConfig@m2@@QEBA?AW4RESOLUTION_ID@2@XZ
?GetWindowType@SystemConfig@m2@@QEBA?AW4WINDOW_TYPE@2@XZ
?Initialize@cPad@@QEAAXXZ
?Initialize@hxPadAssign@hx@@QEAAXXZ
?KeyMask@cPad@@AEAAXPEAUKEY_WORK@@V?$LargeBitValue@W4JOY_ACTIDX@@$0HJ@@m2@@@Z
?Key_set@cPad@@AEAAXPEAUKEY_WORK@@PEAUsJoyWork@@@Z
?Key_stop_mask@cPad@@AEAAXPEAUKEY_WORK@@@Z
?Key_stop_mask_jisiten@cPad@@AEAAXPEAUKEY_WORK@@@Z
?Key_stop_mask_plstopkey@cPad@@AEAAXPEAUKEY_WORK@@@Z
?Lever_gacya_set@cPad@@AEAAIPEAUKEY_WORK@@@Z
?Load@PCGraphicsSettings@m2@@QEAAXXZ
?MemSystemInitialize@@YAXH@Z
?Pad_PS2_emulate@cPad@@AEAAXPEAUsJoyWork@@PEAE@Z
?Pad_clear@cPad@@AEAAX_N@Z
?Pad_play@cPad@@AEAA_NXZ
?Pad_rec_play_init@cPad@@QEAAXPEAEH@Z
?Pad_set@cPad@@AEAAXPEAUsJoyWork@@E@Z
?Pad_setMove@cPad@@AEAAXPEAUsJoyWork@@@Z
?Save@PCGraphicsSettings@m2@@QEAAXXZ
?SetAAMode@SystemConfig@m2@@QEAAXW4AA_MODE@2@@Z
?SetAFMode@SystemConfig@m2@@QEAAXW4AF_MODE@2@@Z
?SetAnisotropicFiltering@PCGraphicsSettings@m2@@QEAAXW4AF_MODE@2@@Z
?SetEnterButtonAssign@SystemConfig@m2@@QEAAXW4ENTER_BUTTON_ASSIGN@2@@Z
?SetPPAAMode@SystemConfig@m2@@QEAAXW4PPAA_MODE@2@@Z
?SetPostProcessAAMode@PCGraphicsSettings@m2@@QEAAXW4PPAA_MODE@2@@Z
?SetRefleshRate@SystemConfig@m2@@QEAAXM@Z
?SetRenderScale@SystemConfig@m2@@QEAAXM@Z
?SetRespectMode@SystemConfig@m2@@QEAAX_N@Z
?SetTQMode@SystemConfig@m2@@QEAAXW4TQ_MODE@2@@Z
?SetTextureQuality@PCGraphicsSettings@m2@@QEAAXW4TQ_MODE@2@@Z
?SetUseCipherResource@ResourceReadConfig@m2@@QEAAXUb32@hx@@@Z
?SetUseCompressedResource@ResourceReadConfig@m2@@QEAAXUb32@hx@@@Z
?SetVsync@PCGraphicsSettings@m2@@QEAAX_N@Z
?SetVsync@SystemConfig@m2@@QEAAX_N@Z
?SetWindowPos@SystemConfig@m2@@QEAAXPEAUHWND__@@@Z
?SetWindowSize@SystemConfig@m2@@QEAAXW4RESOLUTION_ID@2@@Z
?SetWindowType@SystemConfig@m2@@QEAAXW4WINDOW_TYPE@2@@Z
?Set_EX@cObjAtari@@QEAAXPEAVcObj@@EEEGFFFE@Z
?Update@PCGraphicsSettings@m2@@QEAAXXZ
?Update@cPad@@QEAAXXZ
?View@cObjAtari@@QEAAXPEAVcObj@@II@Z
?_instance@?1??getSingletonInstance@?$MainSingletonObject@VPCGraphicsSettings@m2@@@hx@@SAPEAVPCGraphicsSettings@m2@@XZ@4V45@A
?_instance@?1??getSingletonInstance@?$MainSingletonObject@VRespectControl@m2@@@hx@@SAPEAVRespectControl@m2@@XZ@4V45@A
?_instance@?1??getSingletonInstance@?$MainSingletonObject@VWindowControl@m2@@@hx@@SAPEAVWindowControl@m2@@XZ@4V45@A
?_instance@?1??getSingletonInstance@?$SingletonObject@VResourceReadConfig@m2@@@hx@@SAPEAVResourceReadConfig@m2@@XZ@4V45@A
?_instance@?1??getSingletonInstance@?$SingletonObject@VSystemConfig@m2@@@hx@@SAPEAVSystemConfig@m2@@XZ@4V45@A
?checkButtonAllMove@cPad@@QEAAHV?$LargeBitValue@W4JOY_ACTIDX@@$0HJ@@m2@@@Z
?checkButtonAllNavigation@cPad@@QEAAHV?$LargeBitValue@W4JOY_ACTIDX@@$0HJ@@m2@@@Z
?checkButtonAllWireless@cPad@@QEAAHV?$LargeBitValue@W4JOY_ACTIDX@@$0HJ@@m2@@@Z
?checkMainHIDTitle@cPad@@QEAAHXZ
?convertToUsableRefleshRate@WindowControl@m2@@AEAA?AUDXGI_RATIONAL@@M@Z
?deleteAllSaveData@hx@@YAXXZ
?disableBorderless@WindowControl@m2@@QEAAXXZ
?enableBorderless@WindowControl@m2@@QEAAXXZ
?endMoveSphre@cPad@@AEAAXH@Z
?errorCheck@cPad@@AEAA_NXZ
?flower_get_appli_state@@YA?AW4APPLI_STATE@@XZ
?flower_set_appli_state@@YAXW4APPLI_STATE@@@Z
?flower_set_backgound@@YA_N_N@Z
?flower_set_update_message_function@@YAXP6A_NPEAX@Z0@Z
?flower_shutdown@@YAXXZ
?flower_startup@@YA_N_N@Z
?flower_tick@@YA_NXZ
?getAAMode@WindowControl@m2@@QEBA?AW4AA_MODE@2@XZ
?getAllButtonState@cPad@@QEAAXPEAV?$LargeBitValue@W4JOY_ACTIDX@@$0HJ@@m2@@0_N1@Z
?getControllPort@cPad@@QEAAXAEAH0@Z
?getControlltype@cPad@@QEBA?AW4ControllType@@XZ
?getMonitorSize@WindowControl@m2@@QEBA?AUSize@hx@@XZ
?getMotionInst@cPad@@QEAAPEAVhxMotionController@hx@@XZ
?getNavigationInst@cPad@@QEAAPEAVhxNavigationController@hx@@XZ
?getPadData@cPad@@AEAA?AUM2PadData@input@m2@@I@Z
?getR@cObjAtari@@QEAAEXZ
?getRefleshRate@WindowControl@m2@@QEBAMXZ
?getRefleshRates@WindowControl@m2@@QEBA?BV?$vector@MV?$allocator@M@std@@@std@@XZ
?getResolution@m2@@YAAEBUSize@hx@@W4RESOLUTION_ID@1@@Z
?getResolutionId@WindowControl@m2@@QEBA?AW4RESOLUTION_ID@2@XZ
?getResolutionId@m2@@YA?AW4RESOLUTION_ID@1@HH_N@Z
?getResolutionSize@WindowControl@m2@@QEBA?AUSize@hx@@XZ
?getSingletonInstance@?$MainSingletonObject@VPCGraphicsSettings@m2@@@hx@@SAPEAVPCGraphicsSettings@m2@@XZ
?getSingletonInstance@?$MainSingletonObject@VRespectControl@m2@@@hx@@SAPEAVRespectControl@m2@@XZ
?getSingletonInstance@?$MainSingletonObject@VWindowControl@m2@@@hx@@SAPEAVWindowControl@m2@@XZ
?getSingletonInstance@?$SingletonObject@VResourceReadConfig@m2@@@hx@@SAPEAVResourceReadConfig@m2@@XZ
?getSingletonInstance@?$SingletonObject@VSystemConfig@m2@@@hx@@SAPEAVSystemConfig@m2@@XZ
?getWindowType@WindowControl@m2@@QEBA?AW4WINDOW_TYPE@2@XZ
?getWirelessInst@cPad@@QEAAPEAVhxWirelessController@hx@@XZ
?getWirelessInst@cPad@@QEBAPEBVhxWirelessController@hx@@XZ
?isBorderless@WindowControl@m2@@QEBA_NXZ
?isFlag@cObjAtari@@QEAA_NG@Z
?isFullScreen@WindowControl@m2@@QEBA_NXZ
?isRespectMode@RespectControl@m2@@QEBA_NXZ
?isWideMonitor@WindowControl@m2@@QEBA_NXZ
?isWideResolution@WindowControl@m2@@QEBA_NXZ
?mergeJoyWork@cPad@@AEAAXPEBUsJoyWork@@PEAU2@@Z
?moveWindow@WindowControl@m2@@QEAAXPEAUHWND__@@HHHH@Z
?offFlag@cObjAtari@@QEAAXG@Z
?onFlag@cObjAtari@@QEAAXG@Z
?remakeMulitSampleBuffers@WindowControl@m2@@QEAA_NXZ
?requestAAMode@WindowControl@m2@@QEAAXW4AA_MODE@2@@Z
?requestRefleshRate@WindowControl@m2@@QEAAXAEBUDXGI_RATIONAL@@@Z
?requestRefleshRate@WindowControl@m2@@QEAAXM@Z
?requestReset@RespectControl@m2@@QEAAXXZ
?requestResetPrevWindowType@WindowControl@m2@@QEAAXXZ
?requestResetWindowType@WindowControl@m2@@QEAAXXZ
?requestResolution@WindowControl@m2@@QEAAXW4RESOLUTION_ID@2@@Z
?requestRespectMode@RespectControl@m2@@QEAAX_N@Z
?requestWindowType@WindowControl@m2@@QEAAXW4WINDOW_TYPE@2@_N@Z
?reset@RespectControl@m2@@QEAAXXZ
?resetPrevWindowType@WindowControl@m2@@AEAAXXZ
?resetWindowType@WindowControl@m2@@AEAAXXZ
?resizeBackBuffers@WindowControl@m2@@QEAA_NII_N@Z
?resizeRenderBuffers@WindowControl@m2@@QEAA_NGG_N@Z
?resizeWindow@WindowControl@m2@@QEAA_NW4RESOLUTION_ID@2@@Z
?save@WindowControl@m2@@QEAAXXZ
?setAAMode@WindowControl@m2@@AEAA_NW4AA_MODE@2@@Z
?setAtR@cObjAtari@@QEAAXE@Z
?setControlltype@cPad@@QEAAXW4ControllType@@HH@Z
?setJoyLStickWork@cPad@@AEAAXPEBUsJoyWork@@PEAU2@@Z
?setJoyRStickWork@cPad@@AEAAXPEBUsJoyWork@@PEAU2@@Z
?setMainControllerPadAssign@hxPadAssign@hx@@QEAAXW4ControllType@@@Z
?setPage@cLog@@QEAAXI@Z
?setRefleshRate@WindowControl@m2@@AEAAXAEBUDXGI_RATIONAL@@@Z
?setRefleshRate@WindowControl@m2@@AEAAXM@Z
?setResolution@WindowControl@m2@@AEAAXW4RESOLUTION_ID@2@@Z
?setRespectMode@RespectControl@m2@@AEAAX_N@Z
?setWindowType@WindowControl@m2@@AEAAXW4WINDOW_TYPE@2@_N@Z
?setupKeyAssignDecide@hxPadAssign@hx@@AEAAX_N@Z
?setupKeyAssignMotion@hxPadAssign@hx@@QEAAXXZ
?setupKeyAssignWireless@hxPadAssign@hx@@QEAAXXZ
?setupKeyBind@hxPadAssign@hx@@AEAAXXZ
?startConnectionHID@cPad@@QEAA_N_N@Z
?startConnectionHIDTitle@cPad@@QEAA_NXZ
?stopAllMoter@cPad@@QEAAXXZ
?transBlackBand@RespectControl@m2@@SAXXZ
?udpateAllButtonState@cPad@@AEAAXXZ
?update@RespectControl@m2@@QEAA_NXZ
?update@WindowControl@m2@@QEAA_NXZ
?updateHID@cPad@@AEAAXXZ
?updateMoveSphre@cPad@@AEAAXXZ